Microchip MPLAB XC8 Compiler V1.42 ()

Linker command line:

-W-3 --edf=C:\Program Files (x86)\Microchip\xc8\v1.42\dat\en_msgs.txt -cs \
  -h+dist/default/production\software.X.production.sym \
  --cmf=dist/default/production\software.X.production.cmf -z -Q16F1947 \
  -oC:\Users\ADMINI~1\AppData\Local\Temp\s2f50.2 \
  -Mdist/default/production/software.X.production.map -E1 -ver=XC8 \
  -ASTACK=02320h-02373h -pstack=STACK -ACODE=00h-07FFhx8 \
  -ASTRCODE=00h-03FFFh -ASTRING=00h-0FFhx64 -ACONST=00h-0FFhx64 \
  -AENTRY=00h-0FFhx64 -ACOMMON=070h-07Fh -ABANK0=020h-06Fh \
  -ABANK1=0A0h-0EFh -ABANK2=0120h-016Fh -ABANK3=01A0h-01EFh \
  -ABANK4=0220h-026Fh -ABANK5=02A0h-02EFh -ABANK6=0320h-036Fh \
  -ABANK7=03A0h-03EFh -ABANK8=0420h-046Fh -ABANK9=04A0h-04EFh \
  -ABANK10=0520h-056Fh -ABANK11=05A0h-05EFh -ABANK12=0620h-064Fh \
  -ABIGRAM=02000h-023EFh \
  -ARAM=020h-06Fh,0A0h-0EFh,0120h-016Fh,01A0h-01EFh,0220h-026Fh,02A0h-02EFh,0320h-036Fh,03A0h-03EFh,0420h-046Fh,04A0h-04EFh,0520h-056Fh,05A0h-05EFh,0620h-064Fh \
  -AABS1=020h-07Fh,0A0h-0EFh,0120h-016Fh,01A0h-01EFh,0220h-026Fh,02A0h-02EFh,0320h-036Fh,03A0h-03EFh,0420h-046Fh,04A0h-04EFh,0520h-056Fh,05A0h-05EFh,0620h-064Fh \
  -ASFR0=00h-01Fh -ASFR1=080h-09Fh -ASFR2=0100h-011Fh -ASFR3=0180h-019Fh \
  -ASFR4=0200h-021Fh -ASFR5=0280h-029Fh -ASFR6=0300h-031Fh \
  -ASFR7=0380h-039Fh -ASFR8=0400h-041Fh -ASFR9=0480h-049Fh \
  -ASFR10=0500h-051Fh -ASFR11=0580h-059Fh -ASFR12=0600h-061Fh \
  -ASFR13=0680h-06EFh -ASFR14=0700h-076Fh -ASFR15=0780h-07EFh \
  -ASFR16=0800h-086Fh -ASFR17=0880h-08EFh -ASFR18=0900h-096Fh \
  -ASFR19=0980h-09EFh -ASFR20=0A00h-0A6Fh -ASFR21=0A80h-0AEFh \
  -ASFR22=0B00h-0B6Fh -ASFR23=0B80h-0BEFh -ASFR24=0C00h-0C6Fh \
  -ASFR25=0C80h-0CEFh -ASFR26=0D00h-0D6Fh -ASFR27=0D80h-0DEFh \
  -ASFR28=0E00h-0E6Fh -ASFR29=0E80h-0EEFh -ASFR30=0F00h-0F6Fh \
  -ASFR31=0F80h-0FEFh -preset_vec=00h,intentry=04h,init,end_init \
  -ppowerup=CODE -pcinit=CODE -pfunctab=CODE -ACONFIG=08007h-08008h \
  -pconfig=CONFIG -DCONFIG=2 -AIDLOC=08000h-08003h -pidloc=IDLOC -DIDLOC=2 \
  -AEEDATA=00h-0FFh/0F000h -peeprom_data=EEDATA -DEEDATA=2 -DCODE=2 \
  -DSTRCODE=2 -DSTRING=2 -DCONST=2 -DENTRY=2 -k \
  C:\Users\ADMINI~1\AppData\Local\Temp\s2f50.obj \
  dist/default/production\software.X.production.obj 

Object code version is 3.11

Machine type is 16F1947



                Name                               Link     Load   Length Selector   Space Scale
C:\Users\ADMINI~1\AppData\Local\Temp\s2f50.obj
                end_init                             37       37        2        8       0
                reset_vec                             0        0        2        0       0
                config                             8007     8007        2    1000E       0
dist/default/production\software.X.production.obj
                cinit                                39       39       67        8       0
                intentry                              4        4       33        8       0
                text167                            3F41     3F41       25     7E82       0
                text166                               3        3        1        6       0
                text165                            3602     3602       3A     6C04       0
                text164                            3C36     3C36       12     786C       0
                text162                            3E7D     3E7D       1E     7CFA       0
                text161                            2B0E     2B0E       56     561C       0
                text160                            33C9     33C9       31     6792       0
                text159                            3D9E     3D9E       1B     7B3C       0
                text158                            355A     355A       37     6AB4       0
                text157                            3B4C     3B4C        C     7698       0
                text156                            3E9B     3E9B       1F     7D36       0
                text155                            3E26     3E26       1D     7C4C       0
                text154                            3EDA     3EDA       21     7DB4       0
                text153                            1C72     1C72       D6     38E4       0
                text152                            3CA4     3CA4       14     7948       0
                text151                            2978     2978       4D     52F0       0
                text150                            3AF1     3AF1        6     75E2       0
                text149                            3BA5     3BA5        F     774A       0
                text148                            303F     303F       29     607E       0
                text147                            3E0A     3E0A       1C     7C14       0
                text146                            3BD2     3BD2       10     77A4       0
                text145                            3B89     3B89        E     7712       0
                text144                            3CE1     3CE1       16     79C2       0
                text143                            3068     3068       29     60D0       0
                text142                            3309     3309       30     6612       0
                text141                            3CF7     3CF7       17     79EE       0
                text140                            35C9     35C9       39     6B92       0
                text139                            3339     3339       30     6672       0
                text138                            2A68     2A68       53     54D0       0
                text137                            3369     3369       30     66D2       0
                text136                             3BD      3BD      2E7        8       0
                text135                            10CA     10CA      106     2194       0
                text134                            2357     2357       9A     46AE       0
                text133                            3D3C     3D3C       18     7A78       0
                text132                            30BB     30BB       2B     6176       0
                text131                            30E6     30E6       2B     61CC       0
                text130                            3FB2     3FB2       27     7F64       0
                text129                            222A     222A       94     4454       0
                text128                            377A     377A       43     6EF4       0
                text127                            19FD     19FD       D0     33FA       0
                text126                            2F86     2F86       7A     5F0C       0
                text125                            3BB4     3BB4        F     7768       0
                text124                            3AE7     3AE7        5     75CE       0
                text123                            34F0     34F0       35     69E0       0
                text122                            3AF7     3AF7        6     75EE       0
                text121                             7EA      7EA       16        8       0
                text120                            3AFD     3AFD        6     75FA       0
                text119                            3ADC     3ADC        3     75B8       0
                text118                            3E43     3E43       1D     7C86       0
                text117                            3ADF     3ADF        4     75BE       0
                text116                            3C48     3C48       12     7890       0
                text115                            3E60     3E60       1D     7CC0       0
                text114                            3EFB     3EFB       22     7DF6       0
                text113                            3AEC     3AEC        5     75D8       0
                text112                            3D6C     3D6C       19     7AD8       0
                text111                            3B7C     3B7C        D     76F8       0
                text110                            3CCC     3CCC       15     7998       0
                text109                             800      800       22     1000       0
                text108                            3D85     3D85       19     7B0A       0
                text107                            3BF2     3BF2       11     77E4       0
                text106                            3D54     3D54       18     7AA8       0
                text105                            3B11     3B11        9     7622       0
                text104                            3D0E     3D0E       17     7A1C       0
                text103                            3D25     3D25       17     7A4A       0
                text102                            3BC3     3BC3        F     7786       0
                text101                            3DB9     3DB9       1B     7B72       0
                text100                            2F0D     2F0D       79     5E1A       0
                text99                             3B36     3B36        B     766C       0
                text98                             2013     2013       82     4026       0
                swtext3                            3851     3851       18     70A2       0
                text97                              950      950      228     12A0       0
                text96                             3399     3399       30     6732       0
                text95                             25DD     25DD       B2     4BBA       0
                text94                             363C     363C       3F     6C78       0
                text93                             1ACD     1ACD       D0     359A       0
                text92                             12FB     12FB      182     25F6       0
                text91                             2490     2490       A1     4920       0
                text90                             193B     193B       C2     3276       0
                text89                             2B64     2B64       5A     56C8       0
                text88                             3B1A     3B1A        9     7634       0
                text87                             3B09     3B09        8     7612       0
                text86                             3F1D     3F1D       24     7E3A       0
                text85                             3FD9     3FD9       27     7FB2       0
                text84                             3BE2     3BE2       10     77C4       0
                text83                             3738     3738       42     6E70       0
                text82                             3F66     3F66       26     7ECC       0
                text81                             2DB0     2DB0       70     5B60       0
                text80                              6A4      6A4      146        8       0
                text79                             29C5     29C5       51     538A       0
                text78                             33FA     33FA       31     67F4       0
                text77                             3591     3591       38     6B22       0
                text76                             2A16     2A16       52     542C       0
                text75                             3C5A     3C5A       12     78B4       0
                text74                               A0       A0      31D        8       0
                text73                             3B23     3B23        9     7646       0
                text72                             2ABB     2ABB       53     5576       0
                text71                             2C77     2C77       65     58EE       0
                text70                             367B     367B       3F     6CF6       0
                text69                             3017     3017       28     602E       0
                text68                             187F     187F       BC     30FE       0
                text67                             3DD4     3DD4       1B     7BA8       0
                text66                             2095     2095       82     412A       0
                text65                             285A     285A       47     50B4       0
                text64                              DA3      DA3      25D     1B46       0
                text63                             36BA     36BA       3F     6D74       0
                text62                              B78      B78      22B     16F0       0
                text61                             3EBA     3EBA       20     7D74       0
                text60                             1802     1802       7D     3004       0
                text59                             3DEF     3DEF       1B     7BDE       0
                swtext2                            388A     388A       10     70F4       0
                text58                             2CDC     2CDC       66     59B8       0
                text57                             3B58     3B58        C     76B0       0
                text56                             316B     316B       2E     62D6       0
                text55                             3199     3199       2E     6332       0
                text54                             31C7     31C7       2E     638E       0
                text53                             31F5     31F5       2E     63EA       0
                text52                             3223     3223       2E     6446       0
                text51                             3251     3251       2E     64A2       0
                text50                             327F     327F       2E     64FE       0
                text49                             32AD     32AD       2E     655A       0
                swtext1                            387A     387A       10     70F4       0
                text48                             3111     3111       2D     6222       0
                text47                             3C03     3C03       11     7806       0
                text46                             28E8     28E8       48     51D0       0
                text45                             3B41     3B41        B     7682       0
                text44                             3091     3091       2A     6122       0
                text43                             2D42     2D42       6E     5A84       0
                text42                             36F9     36F9       3F     6DF2       0
                text41                             2747     2747       B9     4E8E       0
                text40                             147D     147D      1B3     28FA       0
                text39                             1D48     1D48       D9     3A90       0
                text38                             32DB     32DB       2E     65B6       0
                text37                             3C7E     3C7E       13     78FC       0
                text36                             2BBE     2BBE       5A     577C       0
                text35                             11D0     11D0      12B     23A0       0
                text34                             23F1     23F1       9F     47E2       0
                text33                             3B97     3B97        E     772E       0
                text32                             3B2C     3B2C        A     7658       0
                text31                             342B     342B       31     6856       0
                text30                              822      822      12E     1044       0
                text29                             3C91     3C91       13     7922       0
                text28                             2E20     2E20       76     5C40       0
                text27                             3C6C     3C6C       12     78D8       0
                text26                             22BE     22BE       99     457C       0
                text25                             3525     3525       35     6A4A       0
                text24                             313E     313E       2D     627C       0
                text23                             3F8C     3F8C       26     7F18       0
                text22                             2531     2531       AC     4A62       0
                text21                             3C14     3C14       11     7828       0
                text20                             345C     345C       31     68B8       0
                text19                             348D     348D       31     691A       0
                text18                             2814     2814       46     5028       0
                text17                             2117     2117       82     422E       0
                text16                             3CB8     3CB8       14     7970       0
                text15                             3000     3000       17     5F0C       0
                text14                             28A1     28A1       47     5142       0
                text13                             2C18     2C18       5F     5830       0
                text12                             2800     2800       14     4E8E       0
                text11                             3C25     3C25       11     784A       0
                text10                             268F     268F       B8     4D1E       0
                text9                              2199     2199       91     4332       0
                text8                              1F07     1F07       F9     3E0E       0
                text7                              1B9D     1B9D       D5     373A       0
                text6                              2000     2000       13     3E0E       0
                text5                              1E21     1E21       E6     3C42       0
                text4                              1630     1630      1D0     2C60       0
                text3                              34BE     34BE       32     697C       0
                text2                              2E96     2E96       77     5D2C       0
                text1                              37BD     37BD       43     6F7A       0
                maintext                           1000     1000       CA     1B46       0
                cstackBANK0                          20       20       50       20       1
                cstackCOMMON                         70       70        8       70       1
                cstackBANK1                          CA       CA       26       A0       1
                cstackBANK3                         1D4      1D4        3      1A0       1
                clrtext                            3B64     3B64        C     76C8       0
                inittext                           3B70     3B70        C     76E0       0
                bssBANK5                            2A0      2A0       28      2A0       1
                dataBANK4                           220      220       48      220       1
                dataBANK3                           1CA      1CA        6      1A0       1
                bssBANK3                            1A0      1A0       2A      1A0       1
                dataBANK2                           169      169        4      120       1
                bssBANK2                            120      120       49      120       1
                bssBANK1                             A0       A0       2A       A0       1
                bssCOMMON                            78       78        3       70       1
                stringtext28                       3951     3951        3     7134       0
                stringtext27                       394D     394D        4     7134       0
                stringtext26                       3948     3948        5     7134       0
                stringtext25                       3943     3943        5     7134       0
                stringtext24                       393D     393D        6     7134       0
                stringtext23                       3937     3937        6     7134       0
                stringtext22                       3931     3931        6     7134       0
                stringtext21                       392B     392B        6     7134       0
                stringtext20                       391E     391E        7     7134       0
                stringtext19                       3917     3917        7     7134       0
                stringtext18                       3906     3906        9     7134       0
                stringtext17                       38FD     38FD        9     7134       0
                stringtext16                       38F4     38F4        9     7134       0
                stringtext15                       38EB     38EB        9     7134       0
                stringtext14                       38E2     38E2        9     7134       0
                stringtext13                       38D9     38D9        9     7134       0
                stringtext12                       38D0     38D0        9     7134       0
                stringtext11                       38C7     38C7        9     7134       0
                stringtext10                       38BE     38BE        9     7134       0
                stringtext9                        38B5     38B5        9     7134       0
                stringtext8                        38AC     38AC        9     7134       0
                stringtext7                        38A3     38A3        9     7134       0
                stringtext6                        389A     389A        9     7134       0
                nvBANK3                             1D0      1D0        4      1A0       1
                nvBANK2                             16D      16D        3      120       1
                stringtext5                        3925     3925        6     7134       0
                stringtext4                        390F     390F        8     7134       0
                stringtext3                        3869     3869       11     70D2       0
                stringtext2                        3829     3829       28     7000       0
                stringtext1                        3800     3800       29     7000       0
                idataBANK4                         2930     2930       48     5260       0
                idataBANK3                         3B03     3B03        6     7606       0
                idataBANK2                         3AE3     3AE3        4     75C6       0

TOTAL           Name                               Link     Load   Length     Space
        CLASS   STACK          

        CLASS   CODE           
                end_init                             37       37        2         0
                cinit                                39       39       67         0
                intentry                              4        4       33         0
                reset_vec                             0        0        2         0
                text167                            3F41     3F41       25         0
                text166                               3        3        1         0
                text165                            3602     3602       3A         0
                text164                            3C36     3C36       12         0
                text162                            3E7D     3E7D       1E         0
                text161                            2B0E     2B0E       56         0
                text160                            33C9     33C9       31         0
                text159                            3D9E     3D9E       1B         0
                text158                            355A     355A       37         0
                text157                            3B4C     3B4C        C         0
                text156                            3E9B     3E9B       1F         0
                text155                            3E26     3E26       1D         0
                text154                            3EDA     3EDA       21         0
                text153                            1C72     1C72       D6         0
                text152                            3CA4     3CA4       14         0
                text151                            2978     2978       4D         0
                text150                            3AF1     3AF1        6         0
                text149                            3BA5     3BA5        F         0
                text148                            303F     303F       29         0
                text147                            3E0A     3E0A       1C         0
                text146                            3BD2     3BD2       10         0
                text145                            3B89     3B89        E         0
                text144                            3CE1     3CE1       16         0
                text143                            3068     3068       29         0
                text142                            3309     3309       30         0
                text141                            3CF7     3CF7       17         0
                text140                            35C9     35C9       39         0
                text139                            3339     3339       30         0
                text138                            2A68     2A68       53         0
                text137                            3369     3369       30         0
                text136                             3BD      3BD      2E7         0
                text135                            10CA     10CA      106         0
                text134                            2357     2357       9A         0
                text133                            3D3C     3D3C       18         0
                text132                            30BB     30BB       2B         0
                text131                            30E6     30E6       2B         0
                text130                            3FB2     3FB2       27         0
                text129                            222A     222A       94         0
                text128                            377A     377A       43         0
                text127                            19FD     19FD       D0         0
                text126                            2F86     2F86       7A         0
                text125                            3BB4     3BB4        F         0
                text124                            3AE7     3AE7        5         0
                text123                            34F0     34F0       35         0
                text122                            3AF7     3AF7        6         0
                text121                             7EA      7EA       16         0
                text120                            3AFD     3AFD        6         0
                text119                            3ADC     3ADC        3         0
                text118                            3E43     3E43       1D         0
                text117                            3ADF     3ADF        4         0
                text116                            3C48     3C48       12         0
                text115                            3E60     3E60       1D         0
                text114                            3EFB     3EFB       22         0
                text113                            3AEC     3AEC        5         0
                text112                            3D6C     3D6C       19         0
                text111                            3B7C     3B7C        D         0
                text110                            3CCC     3CCC       15         0
                text109                             800      800       22         0
                text108                            3D85     3D85       19         0
                text107                            3BF2     3BF2       11         0
                text106                            3D54     3D54       18         0
                text105                            3B11     3B11        9         0
                text104                            3D0E     3D0E       17         0
                text103                            3D25     3D25       17         0
                text102                            3BC3     3BC3        F         0
                text101                            3DB9     3DB9       1B         0
                text100                            2F0D     2F0D       79         0
                text99                             3B36     3B36        B         0
                text98                             2013     2013       82         0
                text97                              950      950      228         0
                text96                             3399     3399       30         0
                text95                             25DD     25DD       B2         0
                text94                             363C     363C       3F         0
                text93                             1ACD     1ACD       D0         0
                text92                             12FB     12FB      182         0
                text91                             2490     2490       A1         0
                text90                             193B     193B       C2         0
                text89                             2B64     2B64       5A         0
                text88                             3B1A     3B1A        9         0
                text87                             3B09     3B09        8         0
                text86                             3F1D     3F1D       24         0
                text85                             3FD9     3FD9       27         0
                text84                             3BE2     3BE2       10         0
                text83                             3738     3738       42         0
                text82                             3F66     3F66       26         0
                text81                             2DB0     2DB0       70         0
                text80                              6A4      6A4      146         0
                text79                             29C5     29C5       51         0
                text78                             33FA     33FA       31         0
                text77                             3591     3591       38         0
                text76                             2A16     2A16       52         0
                text75                             3C5A     3C5A       12         0
                text74                               A0       A0      31D         0
                text73                             3B23     3B23        9         0
                text72                             2ABB     2ABB       53         0
                text71                             2C77     2C77       65         0
                text70                             367B     367B       3F         0
                text69                             3017     3017       28         0
                text68                             187F     187F       BC         0
                text67                             3DD4     3DD4       1B         0
                text66                             2095     2095       82         0
                text65                             285A     285A       47         0
                text64                              DA3      DA3      25D         0
                text63                             36BA     36BA       3F         0
                text62                              B78      B78      22B         0
                text61                             3EBA     3EBA       20         0
                text60                             1802     1802       7D         0
                text59                             3DEF     3DEF       1B         0
                text58                             2CDC     2CDC       66         0
                text57                             3B58     3B58        C         0
                text56                             316B     316B       2E         0
                text55                             3199     3199       2E         0
                text54                             31C7     31C7       2E         0
                text53                             31F5     31F5       2E         0
                text52                             3223     3223       2E         0
                text51                             3251     3251       2E         0
                text50                             327F     327F       2E         0
                text49                             32AD     32AD       2E         0
                text48                             3111     3111       2D         0
                text47                             3C03     3C03       11         0
                text46                             28E8     28E8       48         0
                text45                             3B41     3B41        B         0
                text44                             3091     3091       2A         0
                text43                             2D42     2D42       6E         0
                text42                             36F9     36F9       3F         0
                text41                             2747     2747       B9         0
                text40                             147D     147D      1B3         0
                text39                             1D48     1D48       D9         0
                text38                             32DB     32DB       2E         0
                text37                             3C7E     3C7E       13         0
                text36                             2BBE     2BBE       5A         0
                text35                             11D0     11D0      12B         0
                text34                             23F1     23F1       9F         0
                text33                             3B97     3B97        E         0
                text32                             3B2C     3B2C        A         0
                text31                             342B     342B       31         0
                text30                              822      822      12E         0
                text29                             3C91     3C91       13         0
                text28                             2E20     2E20       76         0
                text27                             3C6C     3C6C       12         0
                text26                             22BE     22BE       99         0
                text25                             3525     3525       35         0
                text24                             313E     313E       2D         0
                text23                             3F8C     3F8C       26         0
                text22                             2531     2531       AC         0
                text21                             3C14     3C14       11         0
                text20                             345C     345C       31         0
                text19                             348D     348D       31         0
                text18                             2814     2814       46         0
                text17                             2117     2117       82         0
                text16                             3CB8     3CB8       14         0
                text15                             3000     3000       17         0
                text14                             28A1     28A1       47         0
                text13                             2C18     2C18       5F         0
                text12                             2800     2800       14         0
                text11                             3C25     3C25       11         0
                text10                             268F     268F       B8         0
                text9                              2199     2199       91         0
                text8                              1F07     1F07       F9         0
                text7                              1B9D     1B9D       D5         0
                text6                              2000     2000       13         0
                text5                              1E21     1E21       E6         0
                text4                              1630     1630      1D0         0
                text3                              34BE     34BE       32         0
                text2                              2E96     2E96       77         0
                text1                              37BD     37BD       43         0
                maintext                           1000     1000       CA         0
                clrtext                            3B64     3B64        C         0
                inittext                           3B70     3B70        C         0
                idataBANK4                         2930     2930       48         0
                idataBANK3                         3B03     3B03        6         0
                idataBANK2                         3AE3     3AE3        4         0

        CLASS   STRCODE        
                stringtext28                       3951     3951        3         0
                stringtext27                       394D     394D        4         0
                stringtext26                       3948     3948        5         0
                stringtext25                       3943     3943        5         0
                stringtext24                       393D     393D        6         0
                stringtext23                       3937     3937        6         0
                stringtext22                       3931     3931        6         0
                stringtext21                       392B     392B        6         0
                stringtext20                       391E     391E        7         0
                stringtext19                       3917     3917        7         0
                stringtext18                       3906     3906        9         0
                stringtext17                       38FD     38FD        9         0
                stringtext16                       38F4     38F4        9         0
                stringtext15                       38EB     38EB        9         0
                stringtext14                       38E2     38E2        9         0
                stringtext13                       38D9     38D9        9         0
                stringtext12                       38D0     38D0        9         0
                stringtext11                       38C7     38C7        9         0
                stringtext10                       38BE     38BE        9         0
                stringtext9                        38B5     38B5        9         0
                stringtext8                        38AC     38AC        9         0
                stringtext7                        38A3     38A3        9         0
                stringtext6                        389A     389A        9         0
                stringtext5                        3925     3925        6         0
                stringtext4                        390F     390F        8         0
                stringtext3                        3869     3869       11         0
                stringtext2                        3829     3829       28         0
                stringtext1                        3800     3800       29         0

        CLASS   STRING         

        CLASS   CONST          
                swtext3                            3851     3851       18         0
                swtext2                            388A     388A       10         0
                swtext1                            387A     387A       10         0

        CLASS   ENTRY          

        CLASS   COMMON         
                cstackCOMMON                         70       70        8         1
                bssCOMMON                            78       78        3         1

        CLASS   BANK0          
                cstackBANK0                          20       20       50         1

        CLASS   BANK1          
                cstackBANK1                          CA       CA       26         1
                bssBANK1                             A0       A0       2A         1

        CLASS   BANK2          
                dataBANK2                           169      169        4         1
                bssBANK2                            120      120       49         1
                nvBANK2                             16D      16D        3         1

        CLASS   BANK3          
                cstackBANK3                         1D4      1D4        3         1
                dataBANK3                           1CA      1CA        6         1
                bssBANK3                            1A0      1A0       2A         1
                nvBANK3                             1D0      1D0        4         1

        CLASS   BANK4          
                dataBANK4                           220      220       48         1

        CLASS   BANK5          
                bssBANK5                            2A0      2A0       28         1

        CLASS   BANK6          

        CLASS   BANK7          

        CLASS   BANK8          

        CLASS   BANK9          

        CLASS   BANK10         

        CLASS   BANK11         

        CLASS   BANK12         

        CLASS   BIGRAM         

        CLASS   RAM            

        CLASS   ABS1           
                abs_s1                               7E       7E        2         1
                abs_s1                              340      340       30         1
                abs_s1                              3A0      3A0       50         1
                abs_s1                              420      420       48         1
                abs_s1                              4A0      4A0       50         1
                abs_s1                              5A4      5A4       4C         1
                abs_s1                              620      620       30         1
                abs_s1                             2200     2200        0         1
                abs_s1                             2374     2374        0         1

        CLASS   SFR0           

        CLASS   SFR1           

        CLASS   SFR2           

        CLASS   SFR3           

        CLASS   SFR4           

        CLASS   SFR5           

        CLASS   SFR6           

        CLASS   SFR7           

        CLASS   SFR8           

        CLASS   SFR9           

        CLASS   SFR10          

        CLASS   SFR11          

        CLASS   SFR12          

        CLASS   SFR13          

        CLASS   SFR14          

        CLASS   SFR15          

        CLASS   SFR16          

        CLASS   SFR17          

        CLASS   SFR18          

        CLASS   SFR19          

        CLASS   SFR20          

        CLASS   SFR21          

        CLASS   SFR22          

        CLASS   SFR23          

        CLASS   SFR24          

        CLASS   SFR25          

        CLASS   SFR26          

        CLASS   SFR27          

        CLASS   SFR28          

        CLASS   SFR29          

        CLASS   SFR30          

        CLASS   SFR31          

        CLASS   CONFIG         
                config                             8007     8007        2         0

        CLASS   IDLOC          

        CLASS   EEDATA         

        CLASS   BANK31         

        CLASS   BANK30         

        CLASS   BANK29         

        CLASS   BANK28         

        CLASS   BANK27         

        CLASS   BANK26         

        CLASS   BANK25         

        CLASS   BANK24         

        CLASS   BANK23         

        CLASS   BANK22         

        CLASS   BANK21         

        CLASS   BANK20         

        CLASS   BANK19         

        CLASS   BANK18         

        CLASS   BANK17         

        CLASS   BANK16         

        CLASS   BANK15         

        CLASS   BANK14         

        CLASS   BANK13         



SEGMENTS        Name                           Load    Length   Top    Selector   Space  Class     Delta

                reset_vec                      000000  000002  000002         0       0  CODE        2
                text166                        000003  000001  000004         6       0  CODE        2
                intentry                       000004  0007FC  000800         8       0  CODE        2
                cstackBANK0                    000020  000050  000070        20       1  BANK0       1
                cstackCOMMON                   000070  00000B  00007B        70       1  COMMON      1
                bssBANK1                       0000A0  000050  0000F0        A0       1  BANK1       1
                bssBANK2                       000120  000050  000170       120       1  BANK2       1
                bssBANK3                       0001A0  000037  0001D7       1A0       1  BANK3       1
                dataBANK4                      000220  000048  000268       220       1  BANK4       1
                bssBANK5                       0002A0  000028  0002C8       2A0       1  BANK5       1
                text109                        000800  000022  000822      1000       0  CODE        2
                text30                         000822  00012E  000950      1044       0  CODE        2
                text97                         000950  000228  000B78      12A0       0  CODE        2
                text62                         000B78  00022B  000DA3      16F0       0  CODE        2
                text64                         000DA3  000327  0010CA      1B46       0  CODE        2
                text135                        0010CA  000106  0011D0      2194       0  CODE        2
                text35                         0011D0  00012B  0012FB      23A0       0  CODE        2
                text92                         0012FB  000182  00147D      25F6       0  CODE        2
                text40                         00147D  0001B3  001630      28FA       0  CODE        2
                text4                          001630  0001D0  001800      2C60       0  CODE        2
                text60                         001802  00007D  00187F      3004       0  CODE        2
                text68                         00187F  0000BC  00193B      30FE       0  CODE        2
                text90                         00193B  0000C2  0019FD      3276       0  CODE        2
                text127                        0019FD  0000D0  001ACD      33FA       0  CODE        2
                text93                         001ACD  0000D0  001B9D      359A       0  CODE        2
                text7                          001B9D  0000D5  001C72      373A       0  CODE        2
                text153                        001C72  0000D6  001D48      38E4       0  CODE        2
                text39                         001D48  0000D9  001E21      3A90       0  CODE        2
                text5                          001E21  0000E6  001F07      3C42       0  CODE        2
                text8                          001F07  00010C  002013      3E0E       0  CODE        2
                text98                         002013  000082  002095      4026       0  CODE        2
                text66                         002095  000082  002117      412A       0  CODE        2
                text17                         002117  000082  002199      422E       0  CODE        2
                text9                          002199  000091  00222A      4332       0  CODE        2
                text129                        00222A  000094  0022BE      4454       0  CODE        2
                text26                         0022BE  000099  002357      457C       0  CODE        2
                text134                        002357  00009A  0023F1      46AE       0  CODE        2
                text34                         0023F1  00009F  002490      47E2       0  CODE        2
                text91                         002490  0000A1  002531      4920       0  CODE        2
                text22                         002531  0000AC  0025DD      4A62       0  CODE        2
                text95                         0025DD  0000B2  00268F      4BBA       0  CODE        2
                text10                         00268F  0000B8  002747      4D1E       0  CODE        2
                text41                         002747  0000CD  002814      4E8E       0  CODE        2
                text18                         002814  000046  00285A      5028       0  CODE        2
                text65                         00285A  000047  0028A1      50B4       0  CODE        2
                text14                         0028A1  000047  0028E8      5142       0  CODE        2
                text46                         0028E8  000048  002930      51D0       0  CODE        2
                idataBANK4                     002930  000048  002978      5260       0  CODE        2
                text151                        002978  00004D  0029C5      52F0       0  CODE        2
                text79                         0029C5  000051  002A16      538A       0  CODE        2
                text76                         002A16  000052  002A68      542C       0  CODE        2
                text138                        002A68  000053  002ABB      54D0       0  CODE        2
                text72                         002ABB  000053  002B0E      5576       0  CODE        2
                text161                        002B0E  000056  002B64      561C       0  CODE        2
                text89                         002B64  00005A  002BBE      56C8       0  CODE        2
                text36                         002BBE  00005A  002C18      577C       0  CODE        2
                text13                         002C18  00005F  002C77      5830       0  CODE        2
                text71                         002C77  000065  002CDC      58EE       0  CODE        2
                text58                         002CDC  000066  002D42      59B8       0  CODE        2
                text43                         002D42  00006E  002DB0      5A84       0  CODE        2
                text81                         002DB0  000070  002E20      5B60       0  CODE        2
                text28                         002E20  000076  002E96      5C40       0  CODE        2
                text2                          002E96  000077  002F0D      5D2C       0  CODE        2
                text100                        002F0D  000079  002F86      5E1A       0  CODE        2
                text126                        002F86  000091  003017      5F0C       0  CODE        2
                text69                         003017  000028  00303F      602E       0  CODE        2
                text148                        00303F  000029  003068      607E       0  CODE        2
                text143                        003068  000029  003091      60D0       0  CODE        2
                text44                         003091  00002A  0030BB      6122       0  CODE        2
                text132                        0030BB  00002B  0030E6      6176       0  CODE        2
                text131                        0030E6  00002B  003111      61CC       0  CODE        2
                text48                         003111  00002D  00313E      6222       0  CODE        2
                text24                         00313E  00002D  00316B      627C       0  CODE        2
                text56                         00316B  00002E  003199      62D6       0  CODE        2
                text55                         003199  00002E  0031C7      6332       0  CODE        2
                text54                         0031C7  00002E  0031F5      638E       0  CODE        2
                text53                         0031F5  00002E  003223      63EA       0  CODE        2
                text52                         003223  00002E  003251      6446       0  CODE        2
                text51                         003251  00002E  00327F      64A2       0  CODE        2
                text50                         00327F  00002E  0032AD      64FE       0  CODE        2
                text49                         0032AD  00002E  0032DB      655A       0  CODE        2
                text38                         0032DB  00002E  003309      65B6       0  CODE        2
                text142                        003309  000030  003339      6612       0  CODE        2
                text139                        003339  000030  003369      6672       0  CODE        2
                text137                        003369  000030  003399      66D2       0  CODE        2
                text96                         003399  000030  0033C9      6732       0  CODE        2
                text160                        0033C9  000031  0033FA      6792       0  CODE        2
                text78                         0033FA  000031  00342B      67F4       0  CODE        2
                text31                         00342B  000031  00345C      6856       0  CODE        2
                text20                         00345C  000031  00348D      68B8       0  CODE        2
                text19                         00348D  000031  0034BE      691A       0  CODE        2
                text3                          0034BE  000032  0034F0      697C       0  CODE        2
                text123                        0034F0  000035  003525      69E0       0  CODE        2
                text25                         003525  000035  00355A      6A4A       0  CODE        2
                text158                        00355A  000037  003591      6AB4       0  CODE        2
                text77                         003591  000038  0035C9      6B22       0  CODE        2
                text140                        0035C9  000039  003602      6B92       0  CODE        2
                text165                        003602  00003A  00363C      6C04       0  CODE        2
                text94                         00363C  00003F  00367B      6C78       0  CODE        2
                text70                         00367B  00003F  0036BA      6CF6       0  CODE        2
                text63                         0036BA  00003F  0036F9      6D74       0  CODE        2
                text42                         0036F9  00003F  003738      6DF2       0  CODE        2
                text83                         003738  000042  00377A      6E70       0  CODE        2
                text128                        00377A  000043  0037BD      6EF4       0  CODE        2
                text1                          0037BD  000043  003800      6F7A       0  CODE        2
                stringtext1                    003800  000051  003851      7000       0  STRCODE     2
                swtext3                        003851  000018  003869      70A2       0  CONST       2
                stringtext3                    003869  000011  00387A      70D2       0  STRCODE     2
                swtext1                        00387A  000020  00389A      70F4       0  CONST       2
                stringtext6                    00389A  0000BA  003954      7134       0  STRCODE     2
                text119                        003ADC  000003  003ADF      75B8       0  CODE        2
                text117                        003ADF  000004  003AE3      75BE       0  CODE        2
                idataBANK2                     003AE3  000004  003AE7      75C6       0  CODE        2
                text124                        003AE7  000005  003AEC      75CE       0  CODE        2
                text113                        003AEC  000005  003AF1      75D8       0  CODE        2
                text150                        003AF1  000006  003AF7      75E2       0  CODE        2
                text122                        003AF7  000006  003AFD      75EE       0  CODE        2
                text120                        003AFD  000006  003B03      75FA       0  CODE        2
                idataBANK3                     003B03  000006  003B09      7606       0  CODE        2
                text87                         003B09  000008  003B11      7612       0  CODE        2
                text105                        003B11  000009  003B1A      7622       0  CODE        2
                text88                         003B1A  000009  003B23      7634       0  CODE        2
                text73                         003B23  000009  003B2C      7646       0  CODE        2
                text32                         003B2C  00000A  003B36      7658       0  CODE        2
                text99                         003B36  00000B  003B41      766C       0  CODE        2
                text45                         003B41  00000B  003B4C      7682       0  CODE        2
                text157                        003B4C  00000C  003B58      7698       0  CODE        2
                text57                         003B58  00000C  003B64      76B0       0  CODE        2
                clrtext                        003B64  00000C  003B70      76C8       0  CODE        2
                inittext                       003B70  00000C  003B7C      76E0       0  CODE        2
                text111                        003B7C  00000D  003B89      76F8       0  CODE        2
                text145                        003B89  00000E  003B97      7712       0  CODE        2
                text33                         003B97  00000E  003BA5      772E       0  CODE        2
                text149                        003BA5  00000F  003BB4      774A       0  CODE        2
                text125                        003BB4  00000F  003BC3      7768       0  CODE        2
                text102                        003BC3  00000F  003BD2      7786       0  CODE        2
                text146                        003BD2  000010  003BE2      77A4       0  CODE        2
                text84                         003BE2  000010  003BF2      77C4       0  CODE        2
                text107                        003BF2  000011  003C03      77E4       0  CODE        2
                text47                         003C03  000011  003C14      7806       0  CODE        2
                text21                         003C14  000011  003C25      7828       0  CODE        2
                text11                         003C25  000011  003C36      784A       0  CODE        2
                text164                        003C36  000012  003C48      786C       0  CODE        2
                text116                        003C48  000012  003C5A      7890       0  CODE        2
                text75                         003C5A  000012  003C6C      78B4       0  CODE        2
                text27                         003C6C  000012  003C7E      78D8       0  CODE        2
                text37                         003C7E  000013  003C91      78FC       0  CODE        2
                text29                         003C91  000013  003CA4      7922       0  CODE        2
                text152                        003CA4  000014  003CB8      7948       0  CODE        2
                text16                         003CB8  000014  003CCC      7970       0  CODE        2
                text110                        003CCC  000015  003CE1      7998       0  CODE        2
                text144                        003CE1  000016  003CF7      79C2       0  CODE        2
                text141                        003CF7  000017  003D0E      79EE       0  CODE        2
                text104                        003D0E  000017  003D25      7A1C       0  CODE        2
                text103                        003D25  000017  003D3C      7A4A       0  CODE        2
                text133                        003D3C  000018  003D54      7A78       0  CODE        2
                text106                        003D54  000018  003D6C      7AA8       0  CODE        2
                text112                        003D6C  000019  003D85      7AD8       0  CODE        2
                text108                        003D85  000019  003D9E      7B0A       0  CODE        2
                text159                        003D9E  00001B  003DB9      7B3C       0  CODE        2
                text101                        003DB9  00001B  003DD4      7B72       0  CODE        2
                text67                         003DD4  00001B  003DEF      7BA8       0  CODE        2
                text59                         003DEF  00001B  003E0A      7BDE       0  CODE        2
                text147                        003E0A  00001C  003E26      7C14       0  CODE        2
                text155                        003E26  00001D  003E43      7C4C       0  CODE        2
                text118                        003E43  00001D  003E60      7C86       0  CODE        2
                text115                        003E60  00001D  003E7D      7CC0       0  CODE        2
                text162                        003E7D  00001E  003E9B      7CFA       0  CODE        2
                text156                        003E9B  00001F  003EBA      7D36       0  CODE        2
                text61                         003EBA  000020  003EDA      7D74       0  CODE        2
                text154                        003EDA  000021  003EFB      7DB4       0  CODE        2
                text114                        003EFB  000022  003F1D      7DF6       0  CODE        2
                text86                         003F1D  000024  003F41      7E3A       0  CODE        2
                text167                        003F41  000025  003F66      7E82       0  CODE        2
                text82                         003F66  000026  003F8C      7ECC       0  CODE        2
                text23                         003F8C  000026  003FB2      7F18       0  CODE        2
                text130                        003FB2  000027  003FD9      7F64       0  CODE        2
                text85                         003FD9  000027  004000      7FB2       0  CODE        2
                config                         008007  000002  008009     1000E       0  CONFIG      2


UNUSED ADDRESS RANGES

        Name                Unused          Largest block    Delta
        BANK10           00520-0056F              50           1
        BANK11           005A0-005A3               4           1
        BANK3            001D7-001EF              19           1
        BANK4            00268-0026F               8           1
        BANK5            002C8-002EF              28           1
        BANK6            00320-0033F              20           1
        BANK8            00468-0046F               8           1
        BIGRAM           02000-023EF             3F0           1
        CODE             00002-00002               1           2
                         01800-01801               2
                         03954-03ADB             188
        COMMON           0007B-0007D               3           1
        CONST            00002-00002               1           2
                         01800-01801               2
                         03954-03ADB              AC
        EEDATA           0F000-0F0FF             100           2
        ENTRY            00002-00002               1           2
                         01800-01801               2
                         03954-03ADB              AC
        IDLOC            08000-08003               4           2
        RAM              001D7-001EF              19           1
                         00268-0026F               8
                         002C8-002EF              28
                         00320-0033F              20
                         00468-0046F               8
                         00520-0056F              50
                         005A0-005A3               4
        SFR0             00000-0001F              20           1
        SFR1             00080-0009F              20           1
        SFR10            00500-0051F              20           1
        SFR11            00580-0059F              20           1
        SFR12            00600-0061F              20           1
        SFR13            00680-006EF              70           1
        SFR14            00700-0076F              70           1
        SFR15            00780-007EF              70           1
        SFR16            00800-0086F              70           1
        SFR17            00880-008EF              70           1
        SFR18            00900-0096F              70           1
        SFR19            00980-009EF              70           1
        SFR2             00100-0011F              20           1
        SFR20            00A00-00A6F              70           1
        SFR21            00A80-00AEF              70           1
        SFR22            00B00-00B6F              70           1
        SFR23            00B80-00BEF              70           1
        SFR24            00C00-00C6F              70           1
        SFR25            00C80-00CEF              70           1
        SFR26            00D00-00D6F              70           1
        SFR27            00D80-00DEF              70           1
        SFR28            00E00-00E6F              70           1
        SFR29            00E80-00EEF              70           1
        SFR3             00180-0019F              20           1
        SFR30            00F00-00F6F              70           1
        SFR31            00F80-00FEF              70           1
        SFR4             00200-0021F              20           1
        SFR5             00280-0029F              20           1
        SFR6             00300-0031F              20           1
        SFR7             00380-0039F              20           1
        SFR8             00400-0041F              20           1
        SFR9             00480-0049F              20           1
        STACK            02320-02373              54           1
        STRCODE          00002-00002               1           2
                         01800-01801               2
                         03954-03ADB             188
        STRING           00002-00002               1           2
                         01800-01801               2
                         03954-03ADB              AC

                                  Symbol Table

?___aldiv                                       cstackBANK0  00020
?___almod                                       cstackBANK0  00020
?___awdiv                                       cstackCOMMON 00073
?___awmod                                       cstackCOMMON 00073
?___lldiv                                       cstackBANK0  00028
?___llmod                                       cstackBANK0  00020
?___lmul                                        cstackBANK0  00020
?___lwdiv                                       cstackCOMMON 00073
?___lwmod                                       cstackCOMMON 00073
?___wmul                                        cstackCOMMON 00073
?_adc_mcp3241_read_convert_16                   cstackBANK0  00022
?_app_flow_adc_2_flow                           cstackBANK0  00035
?_app_flow_get_adcAverageValue                  cstackBANK0  00035
?_crc_sum                                       cstackCOMMON 00073
?_get_globle_ticker                             cstackCOMMON 00073
?_m_math_pow                                    cstackBANK0  00028
?_ui_key_waite_up                               cstackBANK0  00020
?_ui_key_waite_up_ex                            cstackBANK0  00020
DATAEE_ReadByte@bAdd                            cstackCOMMON 00073
DATAEE_WriteByte@GIEBitValue                    cstackCOMMON 00075
DATAEE_WriteByte@bAdd                           cstackCOMMON 00074
DATAEE_WriteByte@bData                          cstackCOMMON 00073
EUSART1_Receive_ISR@t8                          cstackCOMMON 00071
TMR0_SetInterruptHandler@InterruptHandler       cstackCOMMON 00073
TMR1_SetInterruptHandler@InterruptHandler       cstackCOMMON 00073
_ANSELA                                         (abs)        0018C
_ANSELAbits                                     (abs)        0018C
_ANSELE                                         (abs)        00190
_ANSELF                                         (abs)        0040C
_ANSELFbits                                     (abs)        0040C
_ANSELG                                         (abs)        0040D
_APFCON                                         (abs)        0011D
_BAUD1CON                                       (abs)        0019F
_CardError                                      bssBANK2     00137
_DATAEE_ReadByte                                text157      03B4C
_DATAEE_WriteByte                               text155      03E26
_EEADRL                                         (abs)        00191
_EECON1bits                                     (abs)        00195
_EECON2                                         (abs)        00196
_EEDATL                                         (abs)        00193
_EUSART1_Initialize                             text125      03BB4
_EUSART1_Receive_ISR                            text167      03F41
_EUSART1_Transmit_ISR                           text166      00003
_Event                                          bssBANK1     000C7
_INTCONbits                                     (abs)        0000B
_INTERRUPT_InterruptManager                     intentry     00004
_KeyValue                                       bssBANK1     000C1
_LATA                                           (abs)        0010C
_LATAbits                                       (abs)        0010C
_LATB                                           (abs)        0010D
_LATBbits                                       (abs)        0010D
_LATC                                           (abs)        0010E
_LATCbits                                       (abs)        0010E
_LATD                                           (abs)        0010F
_LATDbits                                       (abs)        0010F
_LATE                                           (abs)        00110
_LATF                                           (abs)        0038C
_LATFbits                                       (abs)        0038C
_LATG                                           (abs)        0038D
_LCDCON                                         (abs)        00791
_LCDCST                                         (abs)        00794
_LCDDATA0                                       (abs)        007A0
_LCDDigitalIndexTable                           stringtext1  03800
_LCDDigitalTable                                stringtext2  03829
_LCDPSbits                                      (abs)        00792
_LCDREF                                         (abs)        00793
_LCDRL                                          (abs)        00795
_LCDSE0                                         (abs)        00798
_LCDSE1                                         (abs)        00799
_LCDSE2                                         (abs)        0079A
_LCDSE3                                         (abs)        0079B
_LCDSE4                                         (abs)        0079C
_LCDSE5                                         (abs)        0079D
_Main_flowCalibrationTable                      (abs)        02374
_OPTION_REG                                     (abs)        00095
_OPTION_REGbits                                 (abs)        00095
_OSCCON                                         (abs)        00099
_OSCILLATOR_Initialize                          text124      03AE7
_OSCTUNE                                        (abs)        00098
_PIE1bits                                       (abs)        00091
_PIN_MANAGER_Initialize                         text123      034F0
_PIR1bits                                       (abs)        00011
_PORTAbits                                      (abs)        0000C
_PORTB                                          (abs)        0000D
_PORTBbits                                      (abs)        0000D
_PORTCbits                                      (abs)        0000E
_PORTDbits                                      (abs)        0000F
_PiccUid                                        bssBANK3     001BE
_RC1REG                                         (abs)        00199
_RC1STA                                         (abs)        0019D
_RC1STAbits                                     (abs)        0019D
_SP1BRGH                                        (abs)        0019C
_SP1BRGL                                        (abs)        0019B
_SYSTEM_Initialize                              text116      03C48
_T1CON                                          (abs)        00018
_T1CONbits                                      (abs)        00018
_T1GCON                                         (abs)        00019
_TMR0                                           (abs)        00015
_TMR0_DefaultInterruptHandler                   (abs)        00000
_TMR0_ISR                                       text165      03602
_TMR0_Initialize                                text121      007EA
_TMR0_InterruptHandler                          nvBANK3      001D0
_TMR0_SetInterruptHandler                       text122      03AF7
_TMR1H                                          (abs)        00017
_TMR1L                                          (abs)        00016
_TMR1_DefaultInterruptHandler                   (abs)        00000
_TMR1_ISR                                       text164      03C36
_TMR1_Initialize                                text118      03E43
_TMR1_InterruptHandler                          nvBANK3      001D2
_TMR1_SetInterruptHandler                       text120      03AFD
_TMR1_StartTimer                                text119      03ADC
_TRISA                                          (abs)        0008C
_TRISAbits                                      (abs)        0008C
_TRISB                                          (abs)        0008D
_TRISBbits                                      (abs)        0008D
_TRISC                                          (abs)        0008E
_TRISCbits                                      (abs)        0008E
_TRISD                                          (abs)        0008F
_TRISDbits                                      (abs)        0008F
_TRISE                                          (abs)        00090
_TRISF                                          (abs)        0030C
_TRISFbits                                      (abs)        0030C
_TRISG                                          (abs)        0030D
_TX1REG                                         (abs)        0019A
_TX1STA                                         (abs)        0019E
_TablerxAlign                                   stringtext4  0390F
_WDTCON                                         (abs)        00097
_WDT_Initialize                                 text117      03ADF
_WPUB                                           (abs)        0020D
_WPUG                                           (abs)        0048D
__CFG_BOREN$ON                                  (abs)        00000
__CFG_BORV$LO                                   (abs)        00000
__CFG_CLKOUTEN$OFF                              (abs)        00000
__CFG_CP$OFF                                    (abs)        00000
__CFG_CPD$OFF                                   (abs)        00000
__CFG_FCMEN$ON                                  (abs)        00000
__CFG_FOSC$HS                                   (abs)        00000
__CFG_IESO$ON                                   (abs)        00000
__CFG_LVP$OFF                                   (abs)        00000
__CFG_MCLRE$ON                                  (abs)        00000
__CFG_PLLEN$OFF                                 (abs)        00000
__CFG_PWRTE$OFF                                 (abs)        00000
__CFG_STVREN$ON                                 (abs)        00000
__CFG_VCAPEN$OFF                                (abs)        00000
__CFG_WDTE$OFF                                  (abs)        00000
__CFG_WRT$OFF                                   (abs)        00000
__Habs1                                         abs1         00000
__Hbank0                                        bank0        00000
__Hbank1                                        bank1        00000
__Hbank10                                       bank10       00000
__Hbank11                                       bank11       00000
__Hbank12                                       bank12       00000
__Hbank13                                       bank13       00000
__Hbank14                                       bank14       00000
__Hbank15                                       bank15       00000
__Hbank16                                       bank16       00000
__Hbank17                                       bank17       00000
__Hbank18                                       bank18       00000
__Hbank19                                       bank19       00000
__Hbank2                                        bank2        00000
__Hbank20                                       bank20       00000
__Hbank21                                       bank21       00000
__Hbank22                                       bank22       00000
__Hbank23                                       bank23       00000
__Hbank24                                       bank24       00000
__Hbank25                                       bank25       00000
__Hbank26                                       bank26       00000
__Hbank27                                       bank27       00000
__Hbank28                                       bank28       00000
__Hbank29                                       bank29       00000
__Hbank3                                        bank3        00000
__Hbank30                                       bank30       00000
__Hbank31                                       bank31       00000
__Hbank4                                        bank4        00000
__Hbank5                                        bank5        00000
__Hbank6                                        bank6        00000
__Hbank7                                        bank7        00000
__Hbank8                                        bank8        00000
__Hbank9                                        bank9        00000
__Hbigram                                       bigram       00000
__HbssBANK1                                     bssBANK1     00000
__HbssBANK2                                     bssBANK2     00000
__HbssBANK3                                     bssBANK3     00000
__HbssBANK5                                     bssBANK5     00000
__HbssCOMMON                                    bssCOMMON    00000
__Hcinit                                        cinit        000A0
__Hclrtext                                      clrtext      00000
__Hcode                                         code         00000
__Hcommon                                       common       00000
__Hconfig                                       config       08009
__HcstackBANK0                                  cstackBANK0  00000
__HcstackBANK1                                  cstackBANK1  00000
__HcstackBANK3                                  cstackBANK3  00000
__HcstackCOMMON                                 cstackCOMMON 00000
__HdataBANK2                                    dataBANK2    00000
__HdataBANK3                                    dataBANK3    00000
__HdataBANK4                                    dataBANK4    00000
__Heeprom_data                                  eeprom_data  00000
__Hend_init                                     end_init     00039
__Hfunctab                                      functab      00000
__HidataBANK2                                   idataBANK2   00000
__HidataBANK3                                   idataBANK3   00000
__HidataBANK4                                   idataBANK4   00000
__Hidloc                                        idloc        00000
__Hinit                                         init         00037
__Hinittext                                     inittext     00000
__Hintentry                                     intentry     00037
__Hmaintext                                     maintext     00000
__HnvBANK2                                      nvBANK2      00000
__HnvBANK3                                      nvBANK3      00000
__Hpowerup                                      powerup      00000
__Hram                                          ram          00000
__Hreset_vec                                    reset_vec    00002
__Hsfr0                                         sfr0         00000
__Hsfr1                                         sfr1         00000
__Hsfr10                                        sfr10        00000
__Hsfr11                                        sfr11        00000
__Hsfr12                                        sfr12        00000
__Hsfr13                                        sfr13        00000
__Hsfr14                                        sfr14        00000
__Hsfr15                                        sfr15        00000
__Hsfr16                                        sfr16        00000
__Hsfr17                                        sfr17        00000
__Hsfr18                                        sfr18        00000
__Hsfr19                                        sfr19        00000
__Hsfr2                                         sfr2         00000
__Hsfr20                                        sfr20        00000
__Hsfr21                                        sfr21        00000
__Hsfr22                                        sfr22        00000
__Hsfr23                                        sfr23        00000
__Hsfr24                                        sfr24        00000
__Hsfr25                                        sfr25        00000
__Hsfr26                                        sfr26        00000
__Hsfr27                                        sfr27        00000
__Hsfr28                                        sfr28        00000
__Hsfr29                                        sfr29        00000
__Hsfr3                                         sfr3         00000
__Hsfr30                                        sfr30        00000
__Hsfr31                                        sfr31        00000
__Hsfr4                                         sfr4         00000
__Hsfr5                                         sfr5         00000
__Hsfr6                                         sfr6         00000
__Hsfr7                                         sfr7         00000
__Hsfr8                                         sfr8         00000
__Hsfr9                                         sfr9         00000
__Hspace_0                                      (abs)        08009
__Hspace_1                                      (abs)        002C8
__Hspace_2                                      (abs)        00000
__Hspace_3                                      (abs)        00000
__Hstack                                        stack        00000
__Hstrings                                      strings      00000
__Hstringtext1                                  stringtext1  00000
__Hstringtext10                                 stringtext10 00000
__Hstringtext11                                 stringtext11 00000
__Hstringtext12                                 stringtext12 00000
__Hstringtext13                                 stringtext13 00000
__Hstringtext14                                 stringtext14 00000
__Hstringtext15                                 stringtext15 00000
__Hstringtext16                                 stringtext16 00000
__Hstringtext17                                 stringtext17 00000
__Hstringtext18                                 stringtext18 00000
__Hstringtext19                                 stringtext19 00000
__Hstringtext2                                  stringtext2  00000
__Hstringtext20                                 stringtext20 00000
__Hstringtext21                                 stringtext21 00000
__Hstringtext22                                 stringtext22 00000
__Hstringtext23                                 stringtext23 00000
__Hstringtext24                                 stringtext24 00000
__Hstringtext25                                 stringtext25 00000
__Hstringtext26                                 stringtext26 00000
__Hstringtext27                                 stringtext27 00000
__Hstringtext28                                 stringtext28 00000
__Hstringtext29                                 stringtext29 00000
__Hstringtext3                                  stringtext3  00000
__Hstringtext4                                  stringtext4  00000
__Hstringtext5                                  stringtext5  00000
__Hstringtext6                                  stringtext6  00000
__Hstringtext7                                  stringtext7  00000
__Hstringtext8                                  stringtext8  00000
__Hstringtext9                                  stringtext9  00000
__Htext                                         text         00000
__Labs1                                         abs1         00000
__Lbank0                                        bank0        00000
__Lbank1                                        bank1        00000
__Lbank10                                       bank10       00000
__Lbank11                                       bank11       00000
__Lbank12                                       bank12       00000
__Lbank13                                       bank13       00000
__Lbank14                                       bank14       00000
__Lbank15                                       bank15       00000
__Lbank16                                       bank16       00000
__Lbank17                                       bank17       00000
__Lbank18                                       bank18       00000
__Lbank19                                       bank19       00000
__Lbank2                                        bank2        00000
__Lbank20                                       bank20       00000
__Lbank21                                       bank21       00000
__Lbank22                                       bank22       00000
__Lbank23                                       bank23       00000
__Lbank24                                       bank24       00000
__Lbank25                                       bank25       00000
__Lbank26                                       bank26       00000
__Lbank27                                       bank27       00000
__Lbank28                                       bank28       00000
__Lbank29                                       bank29       00000
__Lbank3                                        bank3        00000
__Lbank30                                       bank30       00000
__Lbank31                                       bank31       00000
__Lbank4                                        bank4        00000
__Lbank5                                        bank5        00000
__Lbank6                                        bank6        00000
__Lbank7                                        bank7        00000
__Lbank8                                        bank8        00000
__Lbank9                                        bank9        00000
__Lbigram                                       bigram       00000
__LbssBANK1                                     bssBANK1     00000
__LbssBANK2                                     bssBANK2     00000
__LbssBANK3                                     bssBANK3     00000
__LbssBANK5                                     bssBANK5     00000
__LbssCOMMON                                    bssCOMMON    00000
__Lcinit                                        cinit        00039
__Lclrtext                                      clrtext      00000
__Lcode                                         code         00000
__Lcommon                                       common       00000
__Lconfig                                       config       08007
__LcstackBANK0                                  cstackBANK0  00000
__LcstackBANK1                                  cstackBANK1  00000
__LcstackBANK3                                  cstackBANK3  00000
__LcstackCOMMON                                 cstackCOMMON 00000
__LdataBANK2                                    dataBANK2    00000
__LdataBANK3                                    dataBANK3    00000
__LdataBANK4                                    dataBANK4    00000
__Leeprom_data                                  eeprom_data  00000
__Lend_init                                     end_init     00037
__Lfunctab                                      functab      00000
__LidataBANK2                                   idataBANK2   00000
__LidataBANK3                                   idataBANK3   00000
__LidataBANK4                                   idataBANK4   00000
__Lidloc                                        idloc        00000
__Linit                                         init         00037
__Linittext                                     inittext     00000
__Lintentry                                     intentry     00004
__Lmaintext                                     maintext     00000
__LnvBANK2                                      nvBANK2      00000
__LnvBANK3                                      nvBANK3      00000
__Lpowerup                                      powerup      00000
__Lram                                          ram          00000
__Lreset_vec                                    reset_vec    00000
__Lsfr0                                         sfr0         00000
__Lsfr1                                         sfr1         00000
__Lsfr10                                        sfr10        00000
__Lsfr11                                        sfr11        00000
__Lsfr12                                        sfr12        00000
__Lsfr13                                        sfr13        00000
__Lsfr14                                        sfr14        00000
__Lsfr15                                        sfr15        00000
__Lsfr16                                        sfr16        00000
__Lsfr17                                        sfr17        00000
__Lsfr18                                        sfr18        00000
__Lsfr19                                        sfr19        00000
__Lsfr2                                         sfr2         00000
__Lsfr20                                        sfr20        00000
__Lsfr21                                        sfr21        00000
__Lsfr22                                        sfr22        00000
__Lsfr23                                        sfr23        00000
__Lsfr24                                        sfr24        00000
__Lsfr25                                        sfr25        00000
__Lsfr26                                        sfr26        00000
__Lsfr27                                        sfr27        00000
__Lsfr28                                        sfr28        00000
__Lsfr29                                        sfr29        00000
__Lsfr3                                         sfr3         00000
__Lsfr30                                        sfr30        00000
__Lsfr31                                        sfr31        00000
__Lsfr4                                         sfr4         00000
__Lsfr5                                         sfr5         00000
__Lsfr6                                         sfr6         00000
__Lsfr7                                         sfr7         00000
__Lsfr8                                         sfr8         00000
__Lsfr9                                         sfr9         00000
__Lspace_0                                      (abs)        00000
__Lspace_1                                      (abs)        00000
__Lspace_2                                      (abs)        00000
__Lspace_3                                      (abs)        00000
__Lstack                                        stack        00000
__Lstrings                                      strings      00000
__Lstringtext1                                  stringtext1  00000
__Lstringtext10                                 stringtext10 00000
__Lstringtext11                                 stringtext11 00000
__Lstringtext12                                 stringtext12 00000
__Lstringtext13                                 stringtext13 00000
__Lstringtext14                                 stringtext14 00000
__Lstringtext15                                 stringtext15 00000
__Lstringtext16                                 stringtext16 00000
__Lstringtext17                                 stringtext17 00000
__Lstringtext18                                 stringtext18 00000
__Lstringtext19                                 stringtext19 00000
__Lstringtext2                                  stringtext2  00000
__Lstringtext20                                 stringtext20 00000
__Lstringtext21                                 stringtext21 00000
__Lstringtext22                                 stringtext22 00000
__Lstringtext23                                 stringtext23 00000
__Lstringtext24                                 stringtext24 00000
__Lstringtext25                                 stringtext25 00000
__Lstringtext26                                 stringtext26 00000
__Lstringtext27                                 stringtext27 00000
__Lstringtext28                                 stringtext28 00000
__Lstringtext29                                 stringtext29 00000
__Lstringtext3                                  stringtext3  00000
__Lstringtext4                                  stringtext4  00000
__Lstringtext5                                  stringtext5  00000
__Lstringtext6                                  stringtext6  00000
__Lstringtext7                                  stringtext7  00000
__Lstringtext8                                  stringtext8  00000
__Lstringtext9                                  stringtext9  00000
__Ltext                                         text         00000
__S0                                            (abs)        08009
__S1                                            (abs)        002C8
__S2                                            (abs)        00000
__S3                                            (abs)        00000
___aldiv                                        text98       02013
___aldiv@counter                                cstackBANK0  00028
___aldiv@dividend                               cstackBANK0  00024
___aldiv@divisor                                cstackBANK0  00020
___aldiv@quotient                               cstackBANK0  0002A
___aldiv@sign                                   cstackBANK0  00029
___almod                                        text43       02D42
___almod@counter                                cstackCOMMON 00074
___almod@dividend                               cstackBANK0  00024
___almod@divisor                                cstackBANK0  00020
___almod@sign                                   cstackCOMMON 00075
___awdiv                                        text76       02A16
___awdiv@counter                                cstackBANK0  00020
___awdiv@dividend                               cstackCOMMON 00075
___awdiv@divisor                                cstackCOMMON 00073
___awdiv@quotient                               cstackBANK0  00022
___awdiv@sign                                   cstackBANK0  00021
___awmod                                        text18       02814
___awmod@counter                                cstackBANK0  00020
___awmod@dividend                               cstackCOMMON 00075
___awmod@divisor                                cstackCOMMON 00073
___awmod@sign                                   cstackBANK0  00021
___bmul                                         text75       03C5A
___bmul@multiplicand                            cstackBANK0  00024
___bmul@multiplier                              cstackBANK0  00027
___bmul@product                                 cstackBANK0  00026
___int_sp                                       stack        00000
___latbits                                      (abs)        00003
___lbmod                                        text61       03EBA
___lbmod@counter                                cstackBANK0  00021
___lbmod@dividend                               cstackBANK0  00020
___lbmod@divisor                                cstackCOMMON 00073
___lbmod@rem                                    cstackBANK0  00022
___lldiv                                        text138      02A68
___lldiv@counter                                cstackBANK0  00034
___lldiv@dividend                               cstackBANK0  0002C
___lldiv@divisor                                cstackBANK0  00028
___lldiv@quotient                               cstackBANK0  00030
___llmod                                        text128      0377A
___llmod@counter                                cstackCOMMON 00074
___llmod@dividend                               cstackBANK0  00024
___llmod@divisor                                cstackBANK0  00020
___lmul                                         text137      03369
___lmul@multiplicand                            cstackBANK0  00024
___lmul@multiplier                              cstackBANK0  00020
___lmul@product                                 cstackCOMMON 00073
___lwdiv                                        text25       03525
___lwdiv@counter                                cstackBANK0  00022
___lwdiv@dividend                               cstackCOMMON 00075
___lwdiv@divisor                                cstackCOMMON 00073
___lwdiv@quotient                               cstackBANK0  00020
___lwmod                                        text24       0313E
___lwmod@counter                                cstackBANK0  00020
___lwmod@dividend                               cstackCOMMON 00075
___lwmod@divisor                                cstackCOMMON 00073
___q15                                          bssBANK1     000BA
___q31                                          bssBANK1     000AC
___sp                                           stack        00000
___t16                                          bssCOMMON    00078
___t32                                          bssBANK1     000B4
___t8                                           bssBANK1     000C9
___wmul                                         text162      03E7D
___wmul@multiplicand                            cstackCOMMON 00075
___wmul@multiplier                              cstackCOMMON 00073
___wmul@product                                 cstackBANK0  00020
__end_of_DATAEE_ReadByte                        text157      03B58
__end_of_DATAEE_WriteByte                       text155      03E43
__end_of_EUSART1_Initialize                     text125      03BC3
__end_of_EUSART1_Receive_ISR                    text167      03F66
__end_of_EUSART1_Transmit_ISR                   text166      00004
__end_of_INTERRUPT_InterruptManager             intentry     00037
__end_of_LCDDigitalIndexTable                   stringtext1  03829
__end_of_LCDDigitalTable                        stringtext2  03851
__end_of_OSCILLATOR_Initialize                  text124      03AEC
__end_of_PIN_MANAGER_Initialize                 text123      03525
__end_of_SYSTEM_Initialize                      text116      03C5A
__end_of_TMR0_ISR                               text165      0363C
__end_of_TMR0_Initialize                        text121      00800
__end_of_TMR0_SetInterruptHandler               text122      03AFD
__end_of_TMR1_ISR                               text164      03C48
__end_of_TMR1_Initialize                        text118      03E60
__end_of_TMR1_SetInterruptHandler               text120      03B03
__end_of_TMR1_StartTimer                        text119      03ADF
__end_of_TablerxAlign                           stringtext4  03917
__end_of_WDT_Initialize                         text117      03AE3
__end_of___aldiv                                text98       02095
__end_of___almod                                text43       02DB0
__end_of___awdiv                                text76       02A68
__end_of___awmod                                text18       0285A
__end_of___bmul                                 text75       03C6C
__end_of___lbmod                                text61       03EDA
__end_of___lldiv                                text138      02ABB
__end_of___llmod                                text128      037BD
__end_of___lmul                                 text137      03399
__end_of___lwdiv                                text25       0355A
__end_of___lwmod                                text24       0316B
__end_of___wmul                                 text162      03E9B
__end_of__initialization                        cinit        0009C
__end_of_adc_mcp3241_read_convert_16            text140      03602
__end_of_adc_mcp3241_start_convert_16           text139      03369
__end_of_app_flow_adc_2_flow                    text136      006A4
__end_of_app_flow_get_adcAverageValue           text135      011D0
__end_of_app_flow_lookup                        text134      023F1
__end_of_app_flow_money_off                     text131      03111
__end_of_app_flow_money_warning                 text130      03FD9
__end_of_app_flow_rt_balance_money_cal          text129      022BE
__end_of_app_flow_rt_volume_cal_ex              text127      01ACD
__end_of_crc_append                             text160      033FA
__end_of_crc_sum                                text161      02B64
__end_of_crc_verify                             text158      03591
__end_of_create_card_key_b                      text69       0303F
__end_of_data_api_calibration_table_data_init   text153      01D48
__end_of_data_api_calibration_table_data_save   text92       0147D
__end_of_data_api_flash_process                 text67       03DEF
__end_of_data_api_read_eeprom                   text156      03EBA
__end_of_data_api_rt_data_save                  text68       0193B
__end_of_data_api_system_data_get               text152      03CB8
__end_of_data_api_system_data_init              text151      029C5
__end_of_data_api_write_eeprom                  text154      03EFB
__end_of_defaultKeyA                            stringtext5  0392B
__end_of_delay                                  text145      03B97
__end_of_event_door_monitor                     text150      03AF7
__end_of_event_power_monitor                    text149      03BB4
__end_of_flow_sampling_process                  text126      03000
__end_of_getRegisterVal                         text97       00B78
__end_of_get_globle_ticker                      text33       03BA5
__end_of_hexTable                               stringtext3  0387A
__end_of_iic_received_byte                      text148      03068
__end_of_iic_received_byte_if_ack               text146      03BE2
__end_of_iic_send_ack                           text147      03E26
__end_of_iic_send_byte                          text142      03339
__end_of_iic_start                              text141      03D0E
__end_of_iic_stop                               text144      03CF7
__end_of_iic_waite_ack                          text143      03091
__end_of_in_app_vavle_off                       text132      030E6
__end_of_in_app_vavle_on                        text86       03F41
__end_of_key_process_up_down_variable_speed_ex  text7        01C72
__end_of_key_scan_call                          text85       04000
__end_of_lcd_clear_buffer                       text57       03B64
__end_of_lcd_config                             text114      03F1D
__end_of_lcd_disp_all                           text115      03E7D
__end_of_lcd_disp_cln                           text59       03E0A
__end_of_lcd_disp_code                          text48       0313E
__end_of_lcd_disp_code_0                        text56       03199
__end_of_lcd_disp_code_1                        text55       031C7
__end_of_lcd_disp_code_2                        text54       031F5
__end_of_lcd_disp_code_3                        text53       03223
__end_of_lcd_disp_code_4                        text52       03251
__end_of_lcd_disp_code_5                        text51       0327F
__end_of_lcd_disp_code_6                        text50       032AD
__end_of_lcd_disp_code_7                        text49       032DB
__end_of_lcd_disp_dp                            text58       02D42
__end_of_lcd_disp_refresh                       text47       03C14
__end_of_lcd_disp_str                           text46       02930
__end_of_lcd_init                               text113      03AF1
__end_of_lcd_set_com_seg                        text60       0187F
__end_of_led_port_init                          text112      03D85
__end_of_m_math_pow                             text42       03738
__end_of_m_mem_cpy_len                          text159      03DB9
__end_of_m_mem_set                              text84       03BF2
__end_of_m_system_init                          text110      03CE1
__end_of_main                                   maintext     010CA
__end_of_mfapi_is_new_card_present              text78       0342B
__end_of_mfapi_pcd_init                         text99       03B41
__end_of_mfrc522_bal_clr_bit_reg                text104      03D25
__end_of_mfrc522_bal_read_fifo_len_ex           text83       0377A
__end_of_mfrc522_bal_read_reg                   text108      03D9E
__end_of_mfrc522_bal_set_bit_reg                text103      03D3C
__end_of_mfrc522_bal_write_read_via_spi         text109      00822
__end_of_mfrc522_bal_write_reg                  text107      03C03
__end_of_mfrc522_bal_write_reg_len              text82       03F8C
__end_of_mfrc522_hal_antenna_on                 text106      03D6C
__end_of_mfrc522_hal_calculate_crc              text81       02E20
__end_of_mfrc522_hal_get_antenna_gain           text102      03BD2
__end_of_mfrc522_hal_init                       text100      02F86
__end_of_mfrc522_hal_reset_sf                   text105      03B1A
__end_of_mfrc522_hal_set_antenna_gain           text101      03DD4
__end_of_mifare_read                            text72       02B0E
__end_of_mifare_write                           text65       028A1
__end_of_modbus_response_command                text95       0268F
__end_of_modbus_response_illgeal_function       text94       0367B
__end_of_modbus_response_process                text89       02BBE
__end_of_modbus_response_read_clib_data         text93       01B9D
__end_of_modbus_response_write_clib_data        text91       02531
__end_of_modbus_response_write_single_register  text90       019FD
__end_of_my_uart1_received_ready                text88       03B23
__end_of_my_uart1_send_poll                     text96       033C9
__end_of_other_gpio_port_init                   text111      03B89
__end_of_pcd_comm_with_picc                     text80       007EA
__end_of_pcd_mifare_transceive                  text66       02117
__end_of_picc_authenticate                      text71       02CDC
__end_of_picc_halt_a                            text77       035C9
__end_of_picc_req_a_or_wakeup_a                 text79       02A16
__end_of_picc_select                            text74       003BD
__end_of_picc_stop_cryptol                      text73       03B2C
__end_of_rfid_comm_process                      text39       01E21
__end_of_rfid_comm_process_read_dec             text70       036BA
__end_of_rfid_comm_process_read_header          text64       01000
__end_of_rfid_comm_process_read_inc             text63       036F9
__end_of_rfid_comm_process_recharge             text62       00DA3
__end_of_set_globle_ticker                      text32       03B36
__end_of_timer0_irq_callback                    text38       03309
__end_of_timer1_irq_callback                    text36       02C18
__end_of_ui_disp_balance_and_volume             text40       01630
__end_of_ui_disp_clear_balance                  text29       03CA4
__end_of_ui_disp_clear_totale                   text27       03C7E
__end_of_ui_disp_flow                           text26       02357
__end_of_ui_disp_flow_error                     text45       03B4C
__end_of_ui_disp_menu                           text8        02000
__end_of_ui_disp_modbus_id                      text21       03C25
__end_of_ui_disp_set_balanceOff                 text20       0348D
__end_of_ui_disp_set_balanceWarning             text19       034BE
__end_of_ui_disp_set_calib                      text17       02199
__end_of_ui_disp_set_device_id                  text16       03CCC
__end_of_ui_disp_set_imd_flow_uint              text15       03017
__end_of_ui_disp_set_line                       text14       028E8
__end_of_ui_disp_set_price                      text13       02C77
__end_of_ui_disp_set_transferMoneyLimit         text12       02814
__end_of_ui_disp_small_flow_how_care            text11       03C36
__end_of_ui_disp_str_num                        text22       025DD
__end_of_ui_disp_str_num_ex                     text10       02747
__end_of_ui_disp_totale_v                       text28       02E96
__end_of_ui_disp_transfer_money                 text9        0222A
__end_of_ui_head_hide                           text44       030BB
__end_of_ui_key_process                         text2        02F0D
__end_of_ui_key_process_cancel                  text35       012FB
__end_of_ui_key_process_down                    text34       02490
__end_of_ui_key_process_enter                   text30       00950
__end_of_ui_key_process_up_down                 text5        01F07
__end_of_ui_key_process_up_down_main            text6        02013
__end_of_ui_key_set_process                     text4        01800
__end_of_ui_key_waite_up                        text31       0345C
__end_of_ui_key_waite_up_ex                     text3        034F0
__end_of_ui_mem_cpy                             text23       03FB2
__end_of_ui_start_display                       text1        03800
__end_of_ui_uint32_2_str                        text41       02800
__end_of_valve_off                              text133      03D54
__end_of_valve_on                               text87       03B11
__end_of_valve_stop                             text37       03C91
__initialization                                cinit        00039
__pbssBANK1                                     bssBANK1     000A0
__pbssBANK2                                     bssBANK2     00120
__pbssBANK3                                     bssBANK3     001A0
__pbssBANK5                                     bssBANK5     002A0
__pbssBIGRAM                                    (abs)        02200
__pbssCOMMON                                    bssCOMMON    00078
__pcstackBANK0                                  cstackBANK0  00020
__pcstackBANK1                                  cstackBANK1  000CA
__pcstackBANK3                                  cstackBANK3  001D4
__pcstackCOMMON                                 cstackCOMMON 00070
__pdataBANK2                                    dataBANK2    00169
__pdataBANK3                                    dataBANK3    001CA
__pdataBANK4                                    dataBANK4    00220
__pidataBANK2                                   idataBANK2   03AE3
__pidataBANK3                                   idataBANK3   03B03
__pidataBANK4                                   idataBANK4   02930
__pintentry                                     intentry     00004
__pmaintext                                     maintext     01000
__pnvBANK2                                      nvBANK2      0016D
__pnvBANK3                                      nvBANK3      001D0
__pstringtext1                                  stringtext1  03800
__pstringtext10                                 stringtext10 038BE
__pstringtext11                                 stringtext11 038C7
__pstringtext12                                 stringtext12 038D0
__pstringtext13                                 stringtext13 038D9
__pstringtext14                                 stringtext14 038E2
__pstringtext15                                 stringtext15 038EB
__pstringtext16                                 stringtext16 038F4
__pstringtext17                                 stringtext17 038FD
__pstringtext18                                 stringtext18 03906
__pstringtext19                                 stringtext19 03917
__pstringtext2                                  stringtext2  03829
__pstringtext20                                 stringtext20 0391E
__pstringtext21                                 stringtext21 0392B
__pstringtext22                                 stringtext22 03931
__pstringtext23                                 stringtext23 03937
__pstringtext24                                 stringtext24 0393D
__pstringtext25                                 stringtext25 03943
__pstringtext26                                 stringtext26 03948
__pstringtext27                                 stringtext27 0394D
__pstringtext28                                 stringtext28 03951
__pstringtext29                                 stringtext29 00000
__pstringtext3                                  stringtext3  03869
__pstringtext4                                  stringtext4  0390F
__pstringtext5                                  stringtext5  03925
__pstringtext6                                  stringtext6  0389A
__pstringtext7                                  stringtext7  038A3
__pstringtext8                                  stringtext8  038AC
__pstringtext9                                  stringtext9  038B5
__pswtext1                                      swtext1      0387A
__pswtext2                                      swtext2      0388A
__pswtext3                                      swtext3      03851
__ptext1                                        text1        037BD
__ptext10                                       text10       0268F
__ptext100                                      text100      02F0D
__ptext101                                      text101      03DB9
__ptext102                                      text102      03BC3
__ptext103                                      text103      03D25
__ptext104                                      text104      03D0E
__ptext105                                      text105      03B11
__ptext106                                      text106      03D54
__ptext107                                      text107      03BF2
__ptext108                                      text108      03D85
__ptext109                                      text109      00800
__ptext11                                       text11       03C25
__ptext110                                      text110      03CCC
__ptext111                                      text111      03B7C
__ptext112                                      text112      03D6C
__ptext113                                      text113      03AEC
__ptext114                                      text114      03EFB
__ptext115                                      text115      03E60
__ptext116                                      text116      03C48
__ptext117                                      text117      03ADF
__ptext118                                      text118      03E43
__ptext119                                      text119      03ADC
__ptext12                                       text12       02800
__ptext120                                      text120      03AFD
__ptext121                                      text121      007EA
__ptext122                                      text122      03AF7
__ptext123                                      text123      034F0
__ptext124                                      text124      03AE7
__ptext125                                      text125      03BB4
__ptext126                                      text126      02F86
__ptext127                                      text127      019FD
__ptext128                                      text128      0377A
__ptext129                                      text129      0222A
__ptext13                                       text13       02C18
__ptext130                                      text130      03FB2
__ptext131                                      text131      030E6
__ptext132                                      text132      030BB
__ptext133                                      text133      03D3C
__ptext134                                      text134      02357
__ptext135                                      text135      010CA
__ptext136                                      text136      003BD
__ptext137                                      text137      03369
__ptext138                                      text138      02A68
__ptext139                                      text139      03339
__ptext14                                       text14       028A1
__ptext140                                      text140      035C9
__ptext141                                      text141      03CF7
__ptext142                                      text142      03309
__ptext143                                      text143      03068
__ptext144                                      text144      03CE1
__ptext145                                      text145      03B89
__ptext146                                      text146      03BD2
__ptext147                                      text147      03E0A
__ptext148                                      text148      0303F
__ptext149                                      text149      03BA5
__ptext15                                       text15       03000
__ptext150                                      text150      03AF1
__ptext151                                      text151      02978
__ptext152                                      text152      03CA4
__ptext153                                      text153      01C72
__ptext154                                      text154      03EDA
__ptext155                                      text155      03E26
__ptext156                                      text156      03E9B
__ptext157                                      text157      03B4C
__ptext158                                      text158      0355A
__ptext159                                      text159      03D9E
__ptext16                                       text16       03CB8
__ptext160                                      text160      033C9
__ptext161                                      text161      02B0E
__ptext162                                      text162      03E7D
__ptext164                                      text164      03C36
__ptext165                                      text165      03602
__ptext166                                      text166      00003
__ptext167                                      text167      03F41
__ptext17                                       text17       02117
__ptext18                                       text18       02814
__ptext19                                       text19       0348D
__ptext2                                        text2        02E96
__ptext20                                       text20       0345C
__ptext21                                       text21       03C14
__ptext22                                       text22       02531
__ptext23                                       text23       03F8C
__ptext24                                       text24       0313E
__ptext25                                       text25       03525
__ptext26                                       text26       022BE
__ptext27                                       text27       03C6C
__ptext28                                       text28       02E20
__ptext29                                       text29       03C91
__ptext3                                        text3        034BE
__ptext30                                       text30       00822
__ptext31                                       text31       0342B
__ptext32                                       text32       03B2C
__ptext33                                       text33       03B97
__ptext34                                       text34       023F1
__ptext35                                       text35       011D0
__ptext36                                       text36       02BBE
__ptext37                                       text37       03C7E
__ptext38                                       text38       032DB
__ptext39                                       text39       01D48
__ptext4                                        text4        01630
__ptext40                                       text40       0147D
__ptext41                                       text41       02747
__ptext42                                       text42       036F9
__ptext43                                       text43       02D42
__ptext44                                       text44       03091
__ptext45                                       text45       03B41
__ptext46                                       text46       028E8
__ptext47                                       text47       03C03
__ptext48                                       text48       03111
__ptext49                                       text49       032AD
__ptext5                                        text5        01E21
__ptext50                                       text50       0327F
__ptext51                                       text51       03251
__ptext52                                       text52       03223
__ptext53                                       text53       031F5
__ptext54                                       text54       031C7
__ptext55                                       text55       03199
__ptext56                                       text56       0316B
__ptext57                                       text57       03B58
__ptext58                                       text58       02CDC
__ptext59                                       text59       03DEF
__ptext6                                        text6        02000
__ptext60                                       text60       01802
__ptext61                                       text61       03EBA
__ptext62                                       text62       00B78
__ptext63                                       text63       036BA
__ptext64                                       text64       00DA3
__ptext65                                       text65       0285A
__ptext66                                       text66       02095
__ptext67                                       text67       03DD4
__ptext68                                       text68       0187F
__ptext69                                       text69       03017
__ptext7                                        text7        01B9D
__ptext70                                       text70       0367B
__ptext71                                       text71       02C77
__ptext72                                       text72       02ABB
__ptext73                                       text73       03B23
__ptext74                                       text74       000A0
__ptext75                                       text75       03C5A
__ptext76                                       text76       02A16
__ptext77                                       text77       03591
__ptext78                                       text78       033FA
__ptext79                                       text79       029C5
__ptext8                                        text8        01F07
__ptext80                                       text80       006A4
__ptext81                                       text81       02DB0
__ptext82                                       text82       03F66
__ptext83                                       text83       03738
__ptext84                                       text84       03BE2
__ptext85                                       text85       03FD9
__ptext86                                       text86       03F1D
__ptext87                                       text87       03B09
__ptext88                                       text88       03B1A
__ptext89                                       text89       02B64
__ptext9                                        text9        02199
__ptext90                                       text90       0193B
__ptext91                                       text91       02490
__ptext92                                       text92       012FB
__ptext93                                       text93       01ACD
__ptext94                                       text94       0363C
__ptext95                                       text95       025DD
__ptext96                                       text96       03399
__ptext97                                       text97       00950
__ptext98                                       text98       02013
__ptext99                                       text99       03B36
__size_of_DATAEE_ReadByte                       (abs)        00000
__size_of_DATAEE_WriteByte                      (abs)        00000
__size_of_EUSART1_Initialize                    (abs)        00000
__size_of_EUSART1_Receive_ISR                   (abs)        00000
__size_of_EUSART1_Transmit_ISR                  (abs)        00000
__size_of_INTERRUPT_InterruptManager            (abs)        00000
__size_of_OSCILLATOR_Initialize                 (abs)        00000
__size_of_PIN_MANAGER_Initialize                (abs)        00000
__size_of_SYSTEM_Initialize                     (abs)        00000
__size_of_TMR0_ISR                              (abs)        00000
__size_of_TMR0_Initialize                       (abs)        00000
__size_of_TMR0_SetInterruptHandler              (abs)        00000
__size_of_TMR1_ISR                              (abs)        00000
__size_of_TMR1_Initialize                       (abs)        00000
__size_of_TMR1_SetInterruptHandler              (abs)        00000
__size_of_TMR1_StartTimer                       (abs)        00000
__size_of_WDT_Initialize                        (abs)        00000
__size_of___aldiv                               (abs)        00000
__size_of___almod                               (abs)        00000
__size_of___awdiv                               (abs)        00000
__size_of___awmod                               (abs)        00000
__size_of___bmul                                (abs)        00000
__size_of___lbmod                               (abs)        00000
__size_of___lldiv                               (abs)        00000
__size_of___llmod                               (abs)        00000
__size_of___lmul                                (abs)        00000
__size_of___lwdiv                               (abs)        00000
__size_of___lwmod                               (abs)        00000
__size_of___wmul                                (abs)        00000
__size_of_adc_mcp3241_read_convert_16           (abs)        00000
__size_of_adc_mcp3241_start_convert_16          (abs)        00000
__size_of_app_flow_adc_2_flow                   (abs)        00000
__size_of_app_flow_get_adcAverageValue          (abs)        00000
__size_of_app_flow_lookup                       (abs)        00000
__size_of_app_flow_money_off                    (abs)        00000
__size_of_app_flow_money_warning                (abs)        00000
__size_of_app_flow_rt_balance_money_cal         (abs)        00000
__size_of_app_flow_rt_volume_cal_ex             (abs)        00000
__size_of_crc_append                            (abs)        00000
__size_of_crc_sum                               (abs)        00000
__size_of_crc_verify                            (abs)        00000
__size_of_create_card_key_b                     (abs)        00000
__size_of_data_api_calibration_table_data_init  (abs)        00000
__size_of_data_api_calibration_table_data_save  (abs)        00000
__size_of_data_api_flash_process                (abs)        00000
__size_of_data_api_read_eeprom                  (abs)        00000
__size_of_data_api_rt_data_save                 (abs)        00000
__size_of_data_api_system_data_get              (abs)        00000
__size_of_data_api_system_data_init             (abs)        00000
__size_of_data_api_write_eeprom                 (abs)        00000
__size_of_delay                                 (abs)        00000
__size_of_event_door_monitor                    (abs)        00000
__size_of_event_power_monitor                   (abs)        00000
__size_of_flow_sampling_process                 (abs)        00000
__size_of_getRegisterVal                        (abs)        00000
__size_of_get_globle_ticker                     (abs)        00000
__size_of_iic_received_byte                     (abs)        00000
__size_of_iic_received_byte_if_ack              (abs)        00000
__size_of_iic_send_ack                          (abs)        00000
__size_of_iic_send_byte                         (abs)        00000
__size_of_iic_start                             (abs)        00000
__size_of_iic_stop                              (abs)        00000
__size_of_iic_waite_ack                         (abs)        00000
__size_of_in_app_vavle_off                      (abs)        00000
__size_of_in_app_vavle_on                       (abs)        00000
__size_of_key_process_up_down_variable_speed_ex (abs)        00000
__size_of_key_scan_call                         (abs)        00000
__size_of_lcd_clear_buffer                      (abs)        00000
__size_of_lcd_config                            (abs)        00000
__size_of_lcd_disp_all                          (abs)        00000
__size_of_lcd_disp_cln                          (abs)        00000
__size_of_lcd_disp_code                         (abs)        00000
__size_of_lcd_disp_code_0                       (abs)        00000
__size_of_lcd_disp_code_1                       (abs)        00000
__size_of_lcd_disp_code_2                       (abs)        00000
__size_of_lcd_disp_code_3                       (abs)        00000
__size_of_lcd_disp_code_4                       (abs)        00000
__size_of_lcd_disp_code_5                       (abs)        00000
__size_of_lcd_disp_code_6                       (abs)        00000
__size_of_lcd_disp_code_7                       (abs)        00000
__size_of_lcd_disp_dp                           (abs)        00000
__size_of_lcd_disp_refresh                      (abs)        00000
__size_of_lcd_disp_str                          (abs)        00000
__size_of_lcd_init                              (abs)        00000
__size_of_lcd_set_com_seg                       (abs)        00000
__size_of_led_port_init                         (abs)        00000
__size_of_m_math_pow                            (abs)        00000
__size_of_m_mem_cpy_len                         (abs)        00000
__size_of_m_mem_set                             (abs)        00000
__size_of_m_system_init                         (abs)        00000
__size_of_main                                  (abs)        00000
__size_of_mfapi_is_new_card_present             (abs)        00000
__size_of_mfapi_pcd_init                        (abs)        00000
__size_of_mfrc522_bal_clr_bit_reg               (abs)        00000
__size_of_mfrc522_bal_read_fifo_len_ex          (abs)        00000
__size_of_mfrc522_bal_read_reg                  (abs)        00000
__size_of_mfrc522_bal_set_bit_reg               (abs)        00000
__size_of_mfrc522_bal_write_read_via_spi        (abs)        00000
__size_of_mfrc522_bal_write_reg                 (abs)        00000
__size_of_mfrc522_bal_write_reg_len             (abs)        00000
__size_of_mfrc522_hal_antenna_on                (abs)        00000
__size_of_mfrc522_hal_calculate_crc             (abs)        00000
__size_of_mfrc522_hal_get_antenna_gain          (abs)        00000
__size_of_mfrc522_hal_init                      (abs)        00000
__size_of_mfrc522_hal_reset_sf                  (abs)        00000
__size_of_mfrc522_hal_set_antenna_gain          (abs)        00000
__size_of_mifare_read                           (abs)        00000
__size_of_mifare_write                          (abs)        00000
__size_of_modbus_response_command               (abs)        00000
__size_of_modbus_response_illgeal_function      (abs)        00000
__size_of_modbus_response_process               (abs)        00000
__size_of_modbus_response_read_clib_data        (abs)        00000
__size_of_modbus_response_write_clib_data       (abs)        00000
__size_of_modbus_response_write_single_register (abs)        00000
__size_of_my_uart1_received_ready               (abs)        00000
__size_of_my_uart1_send_poll                    (abs)        00000
__size_of_other_gpio_port_init                  (abs)        00000
__size_of_pcd_comm_with_picc                    (abs)        00000
__size_of_pcd_mifare_transceive                 (abs)        00000
__size_of_picc_authenticate                     (abs)        00000
__size_of_picc_halt_a                           (abs)        00000
__size_of_picc_req_a_or_wakeup_a                (abs)        00000
__size_of_picc_select                           (abs)        00000
__size_of_picc_stop_cryptol                     (abs)        00000
__size_of_rfid_comm_process                     (abs)        00000
__size_of_rfid_comm_process_read_dec            (abs)        00000
__size_of_rfid_comm_process_read_header         (abs)        00000
__size_of_rfid_comm_process_read_inc            (abs)        00000
__size_of_rfid_comm_process_recharge            (abs)        00000
__size_of_set_globle_ticker                     (abs)        00000
__size_of_timer0_irq_callback                   (abs)        00000
__size_of_timer1_irq_callback                   (abs)        00000
__size_of_ui_disp_balance_and_volume            (abs)        00000
__size_of_ui_disp_clear_balance                 (abs)        00000
__size_of_ui_disp_clear_totale                  (abs)        00000
__size_of_ui_disp_flow                          (abs)        00000
__size_of_ui_disp_flow_error                    (abs)        00000
__size_of_ui_disp_menu                          (abs)        00000
__size_of_ui_disp_modbus_id                     (abs)        00000
__size_of_ui_disp_set_balanceOff                (abs)        00000
__size_of_ui_disp_set_balanceWarning            (abs)        00000
__size_of_ui_disp_set_calib                     (abs)        00000
__size_of_ui_disp_set_device_id                 (abs)        00000
__size_of_ui_disp_set_imd_flow_uint             (abs)        00000
__size_of_ui_disp_set_line                      (abs)        00000
__size_of_ui_disp_set_price                     (abs)        00000
__size_of_ui_disp_set_transferMoneyLimit        (abs)        00000
__size_of_ui_disp_small_flow_how_care           (abs)        00000
__size_of_ui_disp_str_num                       (abs)        00000
__size_of_ui_disp_str_num_ex                    (abs)        00000
__size_of_ui_disp_totale_v                      (abs)        00000
__size_of_ui_disp_transfer_money                (abs)        00000
__size_of_ui_head_hide                          (abs)        00000
__size_of_ui_key_process                        (abs)        00000
__size_of_ui_key_process_cancel                 (abs)        00000
__size_of_ui_key_process_down                   (abs)        00000
__size_of_ui_key_process_enter                  (abs)        00000
__size_of_ui_key_process_up_down                (abs)        00000
__size_of_ui_key_process_up_down_main           (abs)        00000
__size_of_ui_key_set_process                    (abs)        00000
__size_of_ui_key_waite_up                       (abs)        00000
__size_of_ui_key_waite_up_ex                    (abs)        00000
__size_of_ui_mem_cpy                            (abs)        00000
__size_of_ui_start_display                      (abs)        00000
__size_of_ui_uint32_2_str                       (abs)        00000
__size_of_valve_off                             (abs)        00000
__size_of_valve_on                              (abs)        00000
__size_of_valve_stop                            (abs)        00000
_adcAverageValue                                bssBANK1     000B8
_adcSamplingBuffer                              bssBANK5     002A0
_adcSamplingTimer                               bssBANK2     00128
_adcSamplingTimerOneTime                        bssBANK2     00126
_adcSamplingTimes                               bssBANK1     000BF
_adc_mcp3241_read_convert_16                    text140      035C9
_adc_mcp3241_start_convert_16                   text139      03339
_adcvalue                                       bssBANK2     00122
_app_flow_adc_2_flow                            text136      003BD
_app_flow_adc_2_flow$4477                       cstackBANK0  0003D
_app_flow_get_adcAverageValue                   text135      010CA
_app_flow_lookup                                text134      02357
_app_flow_money_off                             text131      030E6
_app_flow_money_warning                         text130      03FB2
_app_flow_rt_balance_money_cal                  text129      0222A
_app_flow_rt_volume_cal_ex                      text127      019FD
_bkupMenu                                       bssBANK1     000C2
_calVolumeTimeSec                               bssBANK2     00141
_calVolumeTs                                    bssBANK3     001A2
_calibLocation                                  bssBANK1     000C5
_cardDecBuf                                     (abs)        00456
_cardIncBuf                                     (abs)        00444
_cardReadingFlag                                bssBANK2     0013B
_cardUidBlockBuf                                (abs)        00420
_cardWriteBuf                                   (abs)        00432
_comBuffer                                      (abs)        02200
_crc_append                                     text160      033C9
_crc_sum                                        text161      02B0E
_crc_verify                                     text158      0355A
_create_card_key_b                              text69       03017
_data_api_calibration_table_data_init           text153      01C72
_data_api_calibration_table_data_save           text92       012FB
_data_api_flash_process                         text67       03DD4
_data_api_read_eeprom                           text156      03E9B
_data_api_rt_data_save                          text68       0187F
_data_api_system_data_get                       text152      03CA4
_data_api_system_data_init                      text151      02978
_data_api_write_eeprom                          text154      03EDA
_defaultKeyA                                    stringtext5  03925
_delay                                          text145      03B89
_deviceStatus                                   bssBANK1     000C0
_event_door_monitor                             text150      03AF1
_event_power_monitor                            text149      03BA5
_findCardTimer                                  bssBANK3     001A0
_firstPowerDown                                 bssBANK2     00132
_fl_t16                                         bssBANK2     00124
_fl_t32                                         bssBANK1     000A4
_fl_t8                                          bssBANK2     0013A
_flashOpStr                                     bssBANK2     00143
_flow                                           bssBANK1     000BC
_flowCalibrationLocation                        bssBANK2     0013C
_flowCalibrationPointSingle                     dataBANK2    0016B
_flowError                                      bssBANK1     000C6
_flow_sampling_process                          text126      02F86
_getRegisterVal                                 text97       00950
_get_globle_ticker                              text33       03B97
_globlTickerms                                  bssBANK2     0012E
_hexTable                                       stringtext3  03869
_hour                                           bssBANK2     00134
_iic_received_byte                              text148      0303F
_iic_received_byte_if_ack                       text146      03BD2
_iic_send_ack                                   text147      03E0A
_iic_send_byte                                  text142      03309
_iic_start                                      text141      03CF7
_iic_stop                                       text144      03CE1
_iic_waite_ack                                  text143      03068
_in_app_vavle_off                               text132      030BB
_in_app_vavle_on                                text86       03F1D
_key_process_up_down_variable_speed_ex          text7        01B9D
_key_scan_call                                  text85       03FD9
_lcdBuf                                         bssBANK2     00158
_lcd_clear_buffer                               text57       03B58
_lcd_config                                     text114      03EFB
_lcd_disp_all                                   text115      03E60
_lcd_disp_cln                                   text59       03DEF
_lcd_disp_code                                  text48       03111
_lcd_disp_code_0                                text56       0316B
_lcd_disp_code_1                                text55       03199
_lcd_disp_code_2                                text54       031C7
_lcd_disp_code_3                                text53       031F5
_lcd_disp_code_4                                text52       03223
_lcd_disp_code_5                                text51       03251
_lcd_disp_code_6                                text50       0327F
_lcd_disp_code_7                                text49       032AD
_lcd_disp_dp                                    text58       02CDC
_lcd_disp_refresh                               text47       03C03
_lcd_disp_str                                   text46       028E8
_lcd_init                                       text113      03AEC
_lcd_set_com_seg                                text60       01802
_led_port_init                                  text112      03D6C
_m_math_pow                                     text42       036F9
_m_mem_cpy_len                                  text159      03D9E
_m_mem_set                                      text84       03BE2
_m_system_init                                  text110      03CCC
_main                                           maintext     01000
_mainSystemData                                 dataBANK4    00220
_menu                                           bssBANK1     000C3
_mfapi_is_new_card_present                      text78       033FA
_mfapi_pcd_init                                 text99       03B36
_mfrc522_bal_clr_bit_reg                        text104      03D0E
_mfrc522_bal_read_fifo_len_ex                   text83       03738
_mfrc522_bal_read_reg                           text108      03D85
_mfrc522_bal_set_bit_reg                        text103      03D25
_mfrc522_bal_write_read_via_spi                 text109      00800
_mfrc522_bal_write_reg                          text107      03BF2
_mfrc522_bal_write_reg_len                      text82       03F66
_mfrc522_hal_antenna_on                         text106      03D54
_mfrc522_hal_calculate_crc                      text81       02DB0
_mfrc522_hal_get_antenna_gain                   text102      03BC3
_mfrc522_hal_init                               text100      02F0D
_mfrc522_hal_reset_sf                           text105      03B11
_mfrc522_hal_set_antenna_gain                   text101      03DB9
_mifare_read                                    text72       02ABB
_mifare_write                                   text65       0285A
_min                                            bssBANK2     00135
_modbus_response_command                        text95       025DD
_modbus_response_illgeal_function               text94       0363C
_modbus_response_process                        text89       02B64
_modbus_response_read_clib_data                 text93       01ACD
_modbus_response_write_clib_data                text91       02490
_modbus_response_write_single_register          text90       0193B
_my_uart1_received_ready                        text88       03B1A
_my_uart1_send_poll                             text96       03399
_noKeyEventTimeOut                              dataBANK2    0016C
_opReason                                       bssBANK1     000C4
_other_gpio_port_init                           text111      03B7C
_pLCD                                           bssBANK3     001A6
_pLcdReg                                        dataBANK2    00169
_password                                       bssBANK2     0012A
_pcd_comm_with_picc                             text80       006A4
_pcd_comm_with_picc$3211                        cstackBANK0  0003F
_pcd_mifare_transceive                          text66       02095
_piccResult                                     bssBANK1     000BE
_picc_authenticate                              text71       02C77
_picc_halt_a                                    text77       03591
_picc_req_a_or_wakeup_a                         text79       029C5
_picc_select                                    text74       000A0
_picc_select$3247                               cstackBANK1  000D3
_picc_select$3248                               cstackBANK1  000D4
_picc_select$3251                               cstackBANK1  000CA
_picc_select$3254                               cstackBANK1  000CC
_picc_select$3255                               cstackBANK1  000CE
_picc_stop_cryptol                              text73       03B23
_rdLen                                          bssBANK1     000C8
_rfid_comm_process                              text39       01D48
_rfid_comm_process_read_dec                     text70       0367B
_rfid_comm_process_read_header                  text64       00DA3
_rfid_comm_process_read_inc                     text63       036BA
_rfid_comm_process_recharge                     text62       00B78
_rtBalanceMoney                                 bssBANK1     000A8
_rtVolume_L                                     bssBANK1     000A0
_rtVolume_m3                                    bssBANK1     000B0
_sec                                            bssBANK2     0013E
_sendCount                                      bssBANK2     0013F
_set_globle_ticker                              text32       03B2C
_smallFlowNotCare                               bssBANK2     00139
_systemTickerSec                                bssBANK2     00142
_systemTikerms                                  bssBANK2     00130
_timer0ReloadVal                                nvBANK2      0016F
_timer0_irq_callback                            text38       032DB
_timer1ReloadVal                                nvBANK2      0016D
_timer1_irq_callback                            text36       02BBE
_tmTemp16                                       bssBANK2     00120
_uart1Buffer                                    (abs)        004A0
_uart1ReceivedCount                             bssBANK2     0012C
_uart1ReceivedTimeout                           bssBANK3     001A4
_uart1ReceivedTimer                             bssBANK2     00140
_uiAdjbuf                                       bssBANK2     00161
_ui_disp_balance_and_volume                     text40       0147D
_ui_disp_clear_balance                          text29       03C91
_ui_disp_clear_totale                           text27       03C6C
_ui_disp_flow                                   text26       022BE
_ui_disp_flow_error                             text45       03B41
_ui_disp_menu                                   text8        01F07
_ui_disp_modbus_id                              text21       03C14
_ui_disp_set_balanceOff                         text20       0345C
_ui_disp_set_balanceWarning                     text19       0348D
_ui_disp_set_calib                              text17       02117
_ui_disp_set_device_id                          text16       03CB8
_ui_disp_set_imd_flow_uint                      text15       03000
_ui_disp_set_line                               text14       028A1
_ui_disp_set_price                              text13       02C18
_ui_disp_set_transferMoneyLimit                 text12       02800
_ui_disp_small_flow_how_care                    text11       03C25
_ui_disp_str_num                                text22       02531
_ui_disp_str_num_ex                             text10       0268F
_ui_disp_totale_v                               text28       02E20
_ui_disp_transfer_money                         text9        02199
_ui_head_hide                                   text44       03091
_ui_key_process                                 text2        02E96
_ui_key_process_cancel                          text35       011D0
_ui_key_process_down                            text34       023F1
_ui_key_process_enter                           text30       00822
_ui_key_process_up_down                         text5        01E21
_ui_key_process_up_down_main                    text6        02000
_ui_key_set_process                             text4        01630
_ui_key_waite_up                                text31       0342B
_ui_key_waite_up_ex                             text3        034BE
_ui_mem_cpy                                     text23       03F8C
_ui_start_display                               text1        037BD
_ui_uint32_2_str                                text41       02747
_userKeyB                                       dataBANK3    001CA
_valveStatus                                    bssCOMMON    0007A
_valveTimer                                     bssBANK2     00136
_valve_off                                      text133      03D3C
_valve_on                                       text87       03B09
_valve_stop                                     text37       03C7E
_warningStatus                                  bssBANK2     00138
adc_mcp3241_read_convert_16@sta                 cstackBANK0  00026
adc_mcp3241_read_convert_16@t16                 cstackBANK0  00027
adc_mcp3241_start_convert_16@b                  cstackBANK0  00024
adc_mcp3241_start_convert_16@g                  cstackBANK0  00022
adc_mcp3241_start_convert_16@t8                 cstackBANK0  00025
app_flow_adc_2_flow@ad1                         cstackBANK0  00047
app_flow_adc_2_flow@ad2                         cstackBANK0  00043
app_flow_adc_2_flow@flw1                        cstackBANK0  00045
app_flow_adc_2_flow@flw2                        cstackBANK0  00041
app_flow_adc_2_flow@index                       cstackBANK0  00049
app_flow_get_adcAverageValue@i                  cstackBANK0  0004A
app_flow_get_adcAverageValue@j                  cstackBANK0  00043
app_flow_get_adcAverageValue@max                cstackBANK0  00044
app_flow_get_adcAverageValue@maxIndex           cstackBANK0  0003F
app_flow_get_adcAverageValue@min                cstackBANK0  00041
app_flow_get_adcAverageValue@minIndex           cstackBANK0  00040
app_flow_get_adcAverageValue@ret                cstackBANK0  00046
app_flow_lookup@adcValue                        cstackCOMMON 00073
app_flow_lookup@i                               cstackCOMMON 00075
btemp                                           (abs)        0007E
clear_ram0                                      clrtext      03B64
crc_append@crc                                  cstackBANK0  00031
crc_append@message                              cstackBANK0  00028
crc_append@n                                    cstackBANK0  0002A
crc_sum@buf                                     cstackCOMMON 00073
crc_sum@crc                                     cstackBANK0  00026
crc_sum@i                                       cstackBANK0  00024
crc_sum@j                                       cstackBANK0  00022
crc_sum@len                                     cstackCOMMON 00075
crc_verify@crccal                               cstackBANK0  0002F
crc_verify@expected                             cstackBANK0  00031
crc_verify@message                              cstackBANK0  00028
crc_verify@n                                    cstackBANK0  0002A
create_card_key_b@cckey                         cstackCOMMON 00074
create_card_key_b@i                             cstackCOMMON 00077
create_card_key_b@keyb                          cstackCOMMON 00076
create_card_key_b@uid                           cstackCOMMON 00073
data_api_calibration_table_data_init@i          cstackBANK0  0003C
data_api_calibration_table_data_init@sta        cstackBANK0  00039
data_api_calibration_table_data_init@stp        cstackBANK0  0003A
data_api_calibration_table_data_save@i          cstackBANK0  00045
data_api_calibration_table_data_save@loc        cstackBANK0  00044
data_api_calibration_table_data_save@single     cstackBANK0  00033
data_api_calibration_table_data_save@stp        cstackBANK0  00042
data_api_read_eeprom@addr                       cstackCOMMON 00076
data_api_read_eeprom@buf                        cstackCOMMON 00074
data_api_read_eeprom@i                          cstackBANK0  00021
data_api_read_eeprom@len                        cstackCOMMON 00077
data_api_rt_data_save@stp                       cstackBANK0  00036
data_api_system_data_init@sta                   cstackBANK0  00034
data_api_write_eeprom@addr                      cstackBANK0  00022
data_api_write_eeprom@buf                       cstackBANK0  00020
data_api_write_eeprom@i                         cstackCOMMON 00077
data_api_write_eeprom@len                       cstackBANK0  00023
delay@t                                         cstackCOMMON 00073
end_of_initialization                           cinit        0009C
flow_sampling_process@i                         cstackBANK0  0004C
getRegisterVal@addr                             cstackBANK0  00035
getRegisterVal@result                           cstackBANK0  0003C
getRegisterVal@tempAddr                         cstackBANK0  0003E
getRegisterVal@tempData                         cstackBANK0  00037
get_globle_ticker@ret                           cstackCOMMON 00075
iic_received_byte@i                             cstackCOMMON 00075
iic_received_byte@ret                           cstackCOMMON 00074
iic_received_byte_if_ack@ack                    cstackBANK0  00020
iic_received_byte_if_ack@ret                    cstackBANK0  00021
iic_send_ack@ack                                cstackCOMMON 00073
iic_send_byte@i                                 cstackBANK0  00021
iic_send_byte@x                                 cstackBANK0  00020
iic_waite_ack@timeout                           cstackCOMMON 00076
in_app_vavle_off@op                             cstackCOMMON 00075
in_app_vavle_on@op                              cstackCOMMON 00075
init_ram                                        inittext     03B70
int$flags                                       (abs)        0007E
intlevel0                                       functab      00000
intlevel1                                       functab      00000
intlevel2                                       functab      00000
intlevel3                                       functab      00000
intlevel4                                       functab      00000
intlevel5                                       functab      00000
key_process_up_down_variable_speed_ex@change    cstackBANK0  0004D
key_process_up_down_variable_speed_ex@key       cstackBANK0  0004C
key_process_up_down_variable_speed_ex@max       cstackBANK0  00045
key_process_up_down_variable_speed_ex@min       cstackBANK0  00043
key_process_up_down_variable_speed_ex@speed     cstackBANK0  0004E
key_process_up_down_variable_speed_ex@t32       cstackBANK0  00050
key_process_up_down_variable_speed_ex@up        cstackBANK0  00047
key_process_up_down_variable_speed_ex@val       cstackBANK0  00052
lcd_disp_all@i                                  cstackBANK0  00021
lcd_disp_all@x                                  cstackBANK0  00020
lcd_disp_cln@show                               cstackBANK0  00034
lcd_disp_code@code                              cstackCOMMON 00076
lcd_disp_code@loc                               cstackCOMMON 00075
lcd_disp_code_0@code                            cstackCOMMON 00074
lcd_disp_code_1@code                            cstackCOMMON 00074
lcd_disp_code_2@code                            cstackCOMMON 00074
lcd_disp_code_3@code                            cstackCOMMON 00074
lcd_disp_code_4@code                            cstackCOMMON 00074
lcd_disp_code_5@code                            cstackCOMMON 00074
lcd_disp_code_6@code                            cstackCOMMON 00074
lcd_disp_code_7@code                            cstackCOMMON 00074
lcd_disp_dp@dec                                 cstackBANK0  00035
lcd_disp_dp@show                                cstackBANK0  00032
lcd_disp_str@index                              cstackBANK0  00026
lcd_disp_str@loc                                cstackBANK0  00025
lcd_disp_str@str                                cstackBANK0  00022
lcd_set_com_seg@addr                            cstackBANK0  0002E
lcd_set_com_seg@bloc                            cstackBANK0  00031
lcd_set_com_seg@com                             cstackBANK0  0002F
lcd_set_com_seg@p                               cstackBANK0  00030
lcd_set_com_seg@seg                             cstackBANK0  00028
lcd_set_com_seg@show                            cstackBANK0  00029
m_math_pow@ret                                  cstackBANK0  0002D
m_math_pow@x                                    cstackBANK0  00028
m_math_pow@y                                    cstackBANK0  0002C
m_mem_cpy_len@d                                 cstackCOMMON 00073
m_mem_cpy_len@len                               cstackCOMMON 00077
m_mem_cpy_len@s                                 cstackCOMMON 00075
m_mem_set@buf                                   cstackCOMMON 00073
m_mem_set@len                                   cstackCOMMON 00076
m_mem_set@x                                     cstackCOMMON 00075
main@tm                                         cstackBANK3  001D6
mfapi_is_new_card_present@bufferATQA            cstackBANK0  00058
mfapi_is_new_card_present@bufferSize            cstackBANK0  0005B
mfapi_is_new_card_present@cmd                   cstackBANK0  00057
mfapi_is_new_card_present@result                cstackBANK0  0005A
mfapi_pcd_init@v                                cstackBANK0  0002A
mfrc522_bal_clr_bit_reg@bits                    cstackBANK0  00022
mfrc522_bal_clr_bit_reg@reg                     cstackBANK0  00025
mfrc522_bal_clr_bit_reg@tmp                     cstackBANK0  00024
mfrc522_bal_read_fifo_len_ex@adr                cstackBANK0  00025
mfrc522_bal_read_fifo_len_ex@buf                cstackBANK0  00020
mfrc522_bal_read_fifo_len_ex@i                  cstackBANK0  00026
mfrc522_bal_read_fifo_len_ex@len                cstackBANK0  00022
mfrc522_bal_read_fifo_len_ex@reg                cstackBANK0  00024
mfrc522_bal_read_fifo_len_ex@rx_align           cstackBANK0  00023
mfrc522_bal_read_reg@reg                        cstackBANK0  00020
mfrc522_bal_read_reg@x                          cstackBANK0  00021
mfrc522_bal_set_bit_reg@bits                    cstackBANK0  00022
mfrc522_bal_set_bit_reg@reg                     cstackBANK0  00025
mfrc522_bal_set_bit_reg@tmp                     cstackBANK0  00024
mfrc522_bal_write_read_via_spi@i                cstackCOMMON 00076
mfrc522_bal_write_read_via_spi@rb               cstackCOMMON 00075
mfrc522_bal_write_read_via_spi@x                cstackCOMMON 00074
mfrc522_bal_write_reg@reg                       cstackBANK0  00020
mfrc522_bal_write_reg@x                         cstackCOMMON 00077
mfrc522_bal_write_reg_len@buf                   cstackBANK0  00020
mfrc522_bal_write_reg_len@i                     cstackBANK0  00024
mfrc522_bal_write_reg_len@len                   cstackBANK0  00022
mfrc522_bal_write_reg_len@reg                   cstackBANK0  00023
mfrc522_hal_antenna_on@t8                       cstackBANK0  00023
mfrc522_hal_calculate_crc@data                  cstackBANK0  00026
mfrc522_hal_calculate_crc@i                     cstackBANK0  0002F
mfrc522_hal_calculate_crc@length                cstackBANK0  00028
mfrc522_hal_calculate_crc@result                cstackBANK0  00029
mfrc522_hal_calculate_crc@t8                    cstackBANK0  0002E
mfrc522_hal_get_antenna_gain@ret                cstackBANK0  00023
mfrc522_hal_set_antenna_gain@gain               cstackBANK0  00027
mifare_read@blockAddr                           cstackBANK0  0004F
mifare_read@buffer                              cstackBANK0  0004A
mifare_read@bufferSize                          cstackBANK0  0004B
mifare_read@result                              cstackBANK0  00050
mifare_write@blockAddr                          cstackBANK1  000CA
mifare_write@buffer                             cstackBANK0  00069
mifare_write@bufferSize                         cstackBANK0  0006A
mifare_write@cmdBuffer                          cstackBANK1  000CB
mifare_write@result                             cstackBANK1  000CD
modbus_response_command@i                       cstackBANK0  00047
modbus_response_command@len                     cstackBANK0  00048
modbus_response_command@pmdbs                   cstackBANK0  00046
modbus_response_command@rbuf                    cstackBANK0  00049
modbus_response_command@startAddr               cstackBANK0  00044
modbus_response_command@tempData                cstackBANK0  0004A
modbus_response_command@tmpAddr                 cstackBANK0  00042
modbus_response_illgeal_function@buf            cstackBANK0  00035
modbus_response_illgeal_function@errcode        cstackBANK0  00033
modbus_response_illgeal_function@pmdbs          cstackBANK0  00034
modbus_response_process@pmdbs                   cstackBANK0  00052
modbus_response_process@rbuf                    cstackBANK0  00053
modbus_response_process@resp                    cstackBANK0  00051
modbus_response_process@rlen                    cstackBANK0  0004E
modbus_response_read_clib_data@buf              cstackBANK0  0003F
modbus_response_read_clib_data@len              cstackBANK0  0003D
modbus_response_read_clib_data@pmdbs            cstackBANK0  0003C
modbus_response_read_clib_data@startAddr        cstackBANK0  0003A
modbus_response_write_clib_data@buf             cstackBANK0  0004C
modbus_response_write_clib_data@pmdbs           cstackBANK0  0004D
modbus_response_write_clib_data@startAddr       cstackBANK0  0004A
modbus_response_write_clib_data@t16             cstackBANK0  00048
modbus_response_write_single_register@len       cstackBANK0  00038
modbus_response_write_single_register@pmdbs     cstackBANK0  0003B
modbus_response_write_single_register@rbuf      cstackBANK0  0003C
modbus_response_write_single_register@startAddr cstackBANK0  00039
my_uart1_send_poll@buf                          cstackCOMMON 00075
my_uart1_send_poll@len                          cstackCOMMON 00073
pcd_comm_with_picc@_validBits                   cstackBANK0  00048
pcd_comm_with_picc@bitFraming                   cstackBANK0  0003E
pcd_comm_with_picc@checkCRC                     cstackBANK0  0003A
pcd_comm_with_picc@cmd                          cstackBANK0  00041
pcd_comm_with_picc@controlBuffer                cstackBANK0  00042
pcd_comm_with_picc@errorRegValue                cstackBANK0  00044
pcd_comm_with_picc@i                            cstackBANK0  00046
pcd_comm_with_picc@rbuf                         cstackBANK0  00035
pcd_comm_with_picc@rlen                         cstackBANK0  00037
pcd_comm_with_picc@rxAlign                      cstackBANK0  00039
pcd_comm_with_picc@sbuf                         cstackBANK0  00032
pcd_comm_with_picc@slen                         cstackBANK0  00034
pcd_comm_with_picc@status                       cstackBANK0  00045
pcd_comm_with_picc@tmp8                         cstackBANK0  00049
pcd_comm_with_picc@txLastBits                   cstackBANK0  0003D
pcd_comm_with_picc@validBits                    cstackBANK0  00038
pcd_comm_with_picc@waitIRQ                      cstackBANK0  00031
pcd_mifare_transceive@acceptTimeout             cstackBANK0  0004D
pcd_mifare_transceive@cmdBuffer                 cstackBANK0  00053
pcd_mifare_transceive@cmdBufferSize             cstackBANK0  00067
pcd_mifare_transceive@result                    cstackBANK0  00068
pcd_mifare_transceive@sendData                  cstackBANK0  0004A
pcd_mifare_transceive@sendLen                   cstackBANK0  0004C
pcd_mifare_transceive@validBits                 cstackBANK0  00066
pcd_mifare_transceive@waitIRq                   cstackBANK0  00065
picc_authenticate@blockAddr                     cstackBANK0  0004A
picc_authenticate@command                       cstackBANK0  0005D
picc_authenticate@i                             cstackBANK0  0005F
picc_authenticate@key                           cstackBANK0  0004B
picc_authenticate@sendData                      cstackBANK0  00051
picc_authenticate@uid                           cstackBANK0  0004D
picc_authenticate@waitIRQ                       cstackBANK0  0005E
picc_halt_a@buffer                              cstackBANK0  0004D
picc_halt_a@result                              cstackBANK0  00051
picc_req_a_or_wakeup_a@__cmd                    cstackBANK0  00051
picc_req_a_or_wakeup_a@bufferATQA               cstackBANK0  0004A
picc_req_a_or_wakeup_a@bufferSize               cstackBANK0  0004B
picc_req_a_or_wakeup_a@cmd                      cstackBANK0  00050
picc_req_a_or_wakeup_a@status                   cstackBANK0  00052
picc_req_a_or_wakeup_a@validBits                cstackBANK0  00053
picc_select@buffer                              cstackBANK1  000D8
picc_select@bufferUsed                          cstackBANK1  000D2
picc_select@bytesToCopy                         cstackBANK1  000E5
picc_select@cascadeLevel                        cstackBANK1  000E3
picc_select@collisionPos                        cstackBANK1  000E1
picc_select@count                               cstackBANK1  000EB
picc_select@currentLevelKnownBits               cstackBANK1  000ED
picc_select@index                               cstackBANK1  000EC
picc_select@maxBytes                            cstackBANK1  000D6
picc_select@responseBuffer                      cstackBANK1  000E7
picc_select@responseLength                      cstackBANK1  000E6
picc_select@result                              cstackBANK1  000EA
picc_select@rxAlign                             cstackBANK1  000D5
picc_select@selectDone                          cstackBANK1  000D1
picc_select@txLastBits                          cstackBANK1  000E9
picc_select@uid                                 cstackBANK1  000E8
picc_select@uidComplete                         cstackBANK1  000D0
picc_select@uidIndex                            cstackBANK1  000E4
picc_select@useCascadeTag                       cstackBANK1  000E2
picc_select@validBits                           cstackBANK0  0004A
picc_select@valueOfCollReg                      cstackBANK1  000D7
reset_vec                                       reset_vec    00000
rfid_comm_process@ret                           cstackBANK3  001D5
rfid_comm_process@valveCtrlflag                 cstackBANK3  001D4
rfid_comm_process_read_dec@ret                  cstackBANK0  00063
rfid_comm_process_read_header@ret               cstackBANK0  0006D
rfid_comm_process_read_header@stp               cstackBANK0  0006E
rfid_comm_process_read_inc@ret                  cstackBANK0  00063
rfid_comm_process_recharge@ret                  cstackBANK0  0006D
rfid_comm_process_recharge@stpDec               cstackBANK0  0006F
rfid_comm_process_recharge@stpInc               cstackBANK0  0006E
set_globle_ticker@tk                            cstackCOMMON 00073
stackhi                                         (abs)        02373
stacklo                                         (abs)        02320
start                                           init         00037
start_initialization                            cinit        00039
ui_disp_balance_and_volume@ret                  cstackBANK0  0003C
ui_disp_flow@decnum                             cstackBANK0  0003C
ui_disp_flow@flw                                cstackBANK0  0003D
ui_disp_set_calib@loc                           cstackBANK0  0003D
ui_disp_set_line@t16                            cstackBANK0  0003C
ui_disp_str_num@num                             cstackBANK0  00029
ui_disp_str_num@str                             cstackBANK0  00027
ui_disp_str_num_ex@num                          cstackBANK0  00029
ui_disp_str_num_ex@str                          cstackBANK0  00027
ui_disp_totale_v@decnum                         cstackBANK0  0003C
ui_head_hide@loc                                cstackCOMMON 00073
ui_head_hide@ret                                cstackCOMMON 00075
ui_head_hide@str                                cstackCOMMON 00076
ui_key_process@t16                              cstackBANK0  00056
ui_key_process_cancel@ret                       cstackBANK0  00050
ui_key_process_up_down@up                       cstackBANK0  00054
ui_key_process_up_down_main@up                  cstackCOMMON 00074
ui_key_set_process@ret                          cstackBANK0  00047
ui_key_waite_up@now                             cstackBANK0  00022
ui_key_waite_up_ex@now                          cstackBANK0  00022
ui_key_waite_up_ex@tm                           cstackBANK0  00020
ui_mem_cpy@d                                    cstackCOMMON 00077
ui_mem_cpy@len                                  cstackCOMMON 00076
ui_mem_cpy@s                                    cstackCOMMON 00073
ui_start_display@dly                            cstackBANK0  0002F
ui_uint32_2_str@buf                             cstackCOMMON 00077
ui_uint32_2_str@len                             cstackBANK0  00035
ui_uint32_2_str@x                               cstackBANK0  00031
wtemp0                                          (abs)        0007E


FUNCTION INFORMATION:

 *************** function _main *****************
 Defined at:
		line 55 in file "main.c"
 Parameters:    Size  Location     Type
		None
 Auto vars:     Size  Location     Type
  tm              1    2[BANK3 ] unsigned char 
 Return value:  Size  Location     Type
                  1    wreg      void 
 Registers used:
		wreg, fsr0l, fsr0h, fsr1l, fsr1h, status,2, status,0, pclath, cstack
 Tracked objects:
		On entry : 
		On exit  : 
		Unchanged: 
 Data sizes:     COMMON   BANK0   BANK1   BANK2   BANK3   BANK4   BANK5   BANK6   BANK7   BANK8  BANK10  BANK11  BANK12
      Params:         0       0       0       0       0       0       0       0       0       0       0       0       0
      Locals:         0       0       0       0       1       0       0       0       0       0       0       0       0
      Temps:          0       0       1       0       0       0       0       0       0       0       0       0       0
      Totals:         0       0       1       0       1       0       0       0       0       0       0       0       0
Total ram usage:        2 bytes
 Hardware stack levels required when called:   12
 This function calls:
		_data_api_calibration_table_data_init
		_data_api_flash_process
		_data_api_system_data_init
		_delay
		_event_door_monitor
		_event_power_monitor
		_flow_sampling_process
		_in_app_vavle_on
		_m_system_init
		_mfapi_pcd_init
		_modbus_response_process
		_my_uart1_received_ready
		_rfid_comm_process
		_timer0_irq_callback
		_timer1_irq_callback
		_ui_disp_menu
		_ui_key_process
		_ui_start_display
 This function is called by:
		Startup code after reset
 This function uses a non-reentrant model


 *************** function _ui_start_display *****************
 Defined at:
		line 118 in file "src/api/ui.c"
 Parameters:    Size  Location     Type
		None
 Auto vars:     Size  Location     Type
  dly             1   15[BANK0 ] unsigned char 
 Return value:  Size  Location     Type
                  1    wreg      void 
 Registers used:
		wreg, fsr0l, fsr0h, fsr1l, fsr1h, status,2, status,0, pclath, cstack
 Tracked objects:
		On entry : 
		On exit  : 
		Unchanged: 
 Data sizes:     COMMON   BANK0   BANK1   BANK2   BANK3   BANK4   BANK5   BANK6   BANK7   BANK8  BANK10  BANK11  BANK12
      Params:         0       0       0       0       0       0       0       0       0       0       0       0       0
      Locals:         0       1       0       0       0       0       0       0       0       0       0       0       0
      Temps:          0       2       0       0       0       0       0       0       0       0       0       0       0
      Totals:         0       3       0       0       0       0       0       0       0       0       0       0       0
Total ram usage:        3 bytes
 Hardware stack levels used:    1
 Hardware stack levels required when called:    6
 This function calls:
		_lcd_disp_all
		_lcd_disp_str
		_ui_disp_str_num
 This function is called by:
		_main
 This function uses a non-reentrant model


 *************** function _ui_key_process *****************
 Defined at:
		line 473 in file "src/api/ui_key.c"
 Parameters:    Size  Location     Type
		None
 Auto vars:     Size  Location     Type
  t16             2   54[BANK0 ] unsigned int 
 Return value:  Size  Location     Type
                  1    wreg      void 
 Registers used:
		wreg, fsr0l, fsr0h, fsr1l, fsr1h, status,2, status,0, pclath, cstack
 Tracked objects:
		On entry : 
		On exit  : 
		Unchanged: 
 Data sizes:     COMMON   BANK0   BANK1   BANK2   BANK3   BANK4   BANK5   BANK6   BANK7   BANK8  BANK10  BANK11  BANK12
      Params:         0       0       0       0       0       0       0       0       0       0       0       0       0
      Locals:         0       2       0       0       0       0       0       0       0       0       0       0       0
      Temps:          0       1       0       0       0       0       0       0       0       0       0       0       0
      Totals:         0       3       0       0       0       0       0       0       0       0       0       0       0
Total ram usage:        3 bytes
 Hardware stack levels used:    1
 Hardware stack levels required when called:   11
 This function calls:
		_key_scan_call
		_ui_disp_menu
		_ui_key_process_cancel
		_ui_key_process_down
		_ui_key_process_enter
		_ui_key_process_up_down
		_ui_key_set_process
		_ui_key_waite_up
		_ui_key_waite_up_ex
 This function is called by:
		_main
 This function uses a non-reentrant model


 *************** function _ui_key_waite_up_ex *****************
 Defined at:
		line 31 in file "src/api/ui_key.c"
 Parameters:    Size  Location     Type
  tm              2    0[BANK0 ] unsigned int 
 Auto vars:     Size  Location     Type
  now             2    2[BANK0 ] unsigned int 
 Return value:  Size  Location     Type
                  2    0[BANK0 ] unsigned int 
 Registers used:
		wreg, status,2, status,0, pclath, cstack
 Tracked objects:
		On entry : 
		On exit  : 
		Unchanged: 
 Data sizes:     COMMON   BANK0   BANK1   BANK2   BANK3   BANK4   BANK5   BANK6   BANK7   BANK8  BANK10  BANK11  BANK12
      Params:         0       2       0       0       0       0       0       0       0       0       0       0       0
      Locals:         0       2       0       0       0       0       0       0       0       0       0       0       0
      Temps:          0       0       0       0       0       0       0       0       0       0       0       0       0
      Totals:         0       4       0       0       0       0       0       0       0       0       0       0       0
Total ram usage:        4 bytes
 Hardware stack levels used:    1
 Hardware stack levels required when called:    4
 This function calls:
		_get_globle_ticker
		_key_scan_call
		_set_globle_ticker
 This function is called by:
		_ui_key_process
 This function uses a non-reentrant model


 *************** function _ui_key_set_process *****************
 Defined at:
		line 316 in file "src/api/ui_key.c"
 Parameters:    Size  Location     Type
		None
 Auto vars:     Size  Location     Type
  ret             1   39[BANK0 ] unsigned char 
 Return value:  Size  Location     Type
                  1    wreg      void 
 Registers used:
		wreg, fsr0l, fsr0h, fsr1l, fsr1h, status,2, status,0, pclath, cstack
 Tracked objects:
		On entry : 
		On exit  : 
		Unchanged: 
 Data sizes:     COMMON   BANK0   BANK1   BANK2   BANK3   BANK4   BANK5   BANK6   BANK7   BANK8  BANK10  BANK11  BANK12
      Params:         0       0       0       0       0       0       0       0       0       0       0       0       0
      Locals:         0       1       0       0       0       0       0       0       0       0       0       0       0
      Temps:          0       1       0       0       0       0       0       0       0       0       0       0       0
      Totals:         0       2       0       0       0       0       0       0       0       0       0       0       0
Total ram usage:        2 bytes
 Hardware stack levels used:    1
 Hardware stack levels required when called:    5
 This function calls:
		___awdiv
		___wmul
		_data_api_calibration_table_data_save
		_m_mem_cpy_len
 This function is called by:
		_ui_key_process
 This function uses a non-reentrant model


 *************** function _ui_key_process_up_down *****************
 Defined at:
		line 154 in file "src/api/ui_key.c"
 Parameters:    Size  Location     Type
  up              1    wreg     unsigned char 
 Auto vars:     Size  Location     Type
  up              1   52[BANK0 ] unsigned char 
 Return value:  Size  Location     Type
                  1    wreg      void 
 Registers used:
		wreg, fsr0l, fsr0h, fsr1l, fsr1h, status,2, status,0, pclath, cstack
 Tracked objects:
		On entry : 
		On exit  : 
		Unchanged: 
 Data sizes:     COMMON   BANK0   BANK1   BANK2   BANK3   BANK4   BANK5   BANK6   BANK7   BANK8  BANK10  BANK11  BANK12
      Params:         0       0       0       0       0       0       0       0       0       0       0       0       0
      Locals:         0       1       0       0       0       0       0       0       0       0       0       0       0
      Temps:          0       1       0       0       0       0       0       0       0       0       0       0       0
      Totals:         0       2       0       0       0       0       0       0       0       0       0       0       0
Total ram usage:        2 bytes
 Hardware stack levels used:    1
 Hardware stack levels required when called:   10
 This function calls:
		_key_process_up_down_variable_speed_ex
		_ui_key_process_up_down_main
 This function is called by:
		_ui_key_process
 This function uses a non-reentrant model


 *************** function _ui_key_process_up_down_main *****************
 Defined at:
		line 89 in file "src/api/ui_key.c"
 Parameters:    Size  Location     Type
  up              1    wreg     unsigned char 
 Auto vars:     Size  Location     Type
  up              1    4[COMMON] unsigned char 
 Return value:  Size  Location     Type
                  1    wreg      void 
 Registers used:
		wreg, status,2, status,0
 Tracked objects:
		On entry : 
		On exit  : 
		Unchanged: 
 Data sizes:     COMMON   BANK0   BANK1   BANK2   BANK3   BANK4   BANK5   BANK6   BANK7   BANK8  BANK10  BANK11  BANK12
      Params:         0       0       0       0       0       0       0       0       0       0       0       0       0
      Locals:         1       0       0       0       0       0       0       0       0       0       0       0       0
      Temps:          1       0       0       0       0       0       0       0       0       0       0       0       0
      Totals:         2       0       0       0       0       0       0       0       0       0       0       0       0
Total ram usage:        2 bytes
 Hardware stack levels used:    1
 Hardware stack levels required when called:    2
 This function calls:
		Nothing
 This function is called by:
		_ui_key_process_up_down
 This function uses a non-reentrant model


 *************** function _key_process_up_down_variable_speed_ex *****************
 Defined at:
		line 47 in file "src/api/ui_key.c"
 Parameters:    Size  Location     Type
  val             1    wreg     PTR int 
		 -> uiAdjbuf(8), 
  min             2   35[BANK0 ] int 
  max             2   37[BANK0 ] int 
  up              1   39[BANK0 ] unsigned char 
 Auto vars:     Size  Location     Type
  val             1   50[BANK0 ] PTR int 
		 -> uiAdjbuf(8), 
  t32             2   48[BANK0 ] unsigned int 
  speed           2   46[BANK0 ] unsigned int 
  change          1   45[BANK0 ] unsigned char 
  key             1   44[BANK0 ] unsigned char 
 Return value:  Size  Location     Type
                  1    wreg      void 
 Registers used:
		wreg, fsr0l, fsr0h, fsr1l, fsr1h, status,2, status,0, pclath, cstack
 Tracked objects:
		On entry : 
		On exit  : 
		Unchanged: 
 Data sizes:     COMMON   BANK0   BANK1   BANK2   BANK3   BANK4   BANK5   BANK6   BANK7   BANK8  BANK10  BANK11  BANK12
      Params:         0       5       0       0       0       0       0       0       0       0       0       0       0
      Locals:         0       7       0       0       0       0       0       0       0       0       0       0       0
      Temps:          0       4       0       0       0       0       0       0       0       0       0       0       0
      Totals:         0      16       0       0       0       0       0       0       0       0       0       0       0
Total ram usage:       16 bytes
 Hardware stack levels used:    1
 Hardware stack levels required when called:    9
 This function calls:
		_get_globle_ticker
		_key_scan_call
		_set_globle_ticker
		_ui_disp_menu
 This function is called by:
		_ui_key_process_up_down
 This function uses a non-reentrant model


 *************** function _ui_disp_menu *****************
 Defined at:
		line 549 in file "src/api/ui.c"
 Parameters:    Size  Location     Type
		None
 Auto vars:     Size  Location     Type
		None
 Return value:  Size  Location     Type
                  1    wreg      void 
 Registers used:
		wreg, fsr0l, fsr0h, fsr1l, fsr1h, status,2, status,0, pclath, cstack
 Tracked objects:
		On entry : 
		On exit  : 
		Unchanged: 
 Data sizes:     COMMON   BANK0   BANK1   BANK2   BANK3   BANK4   BANK5   BANK6   BANK7   BANK8  BANK10  BANK11  BANK12
      Params:         0       0       0       0       0       0       0       0       0       0       0       0       0
      Locals:         0       0       0       0       0       0       0       0       0       0       0       0       0
      Temps:          0       2       0       0       0       0       0       0       0       0       0       0       0
      Totals:         0       2       0       0       0       0       0       0       0       0       0       0       0
Total ram usage:        2 bytes
 Hardware stack levels used:    1
 Hardware stack levels required when called:    8
 This function calls:
		_lcd_clear_buffer
		_lcd_disp_refresh
		_lcd_disp_str
		_ui_disp_balance_and_volume
		_ui_disp_clear_balance
		_ui_disp_clear_totale
		_ui_disp_flow
		_ui_disp_modbus_id
		_ui_disp_set_balanceOff
		_ui_disp_set_balanceWarning
		_ui_disp_set_calib
		_ui_disp_set_device_id
		_ui_disp_set_imd_flow_uint
		_ui_disp_set_line
		_ui_disp_set_price
		_ui_disp_set_transferMoneyLimit
		_ui_disp_small_flow_how_care
		_ui_disp_str_num_ex
		_ui_disp_totale_v
		_ui_disp_transfer_money
 This function is called by:
		_key_process_up_down_variable_speed_ex
		_ui_key_process
		_main
 This function uses a non-reentrant model


 *************** function _ui_disp_transfer_money *****************
 Defined at:
		line 250 in file "src/api/ui.c"
 Parameters:    Size  Location     Type
		None
 Auto vars:     Size  Location     Type
		None
 Return value:  Size  Location     Type
                  1    wreg      void 
 Registers used:
		wreg, fsr0l, fsr0h, fsr1l, fsr1h, status,2, status,0, pclath, cstack
 Tracked objects:
		On entry : 
		On exit  : 
		Unchanged: 
 Data sizes:     COMMON   BANK0   BANK1   BANK2   BANK3   BANK4   BANK5   BANK6   BANK7   BANK8  BANK10  BANK11  BANK12
      Params:         0       0       0       0       0       0       0       0       0       0       0       0       0
      Locals:         0       0       0       0       0       0       0       0       0       0       0       0       0
      Temps:          0       2       0       0       0       0       0       0       0       0       0       0       0
      Totals:         0       2       0       0       0       0       0       0       0       0       0       0       0
Total ram usage:        2 bytes
 Hardware stack levels used:    1
 Hardware stack levels required when called:    5
 This function calls:
		___lldiv
		_lcd_clear_buffer
		_lcd_disp_str
		_m_mem_set
		_ui_head_hide
		_ui_uint32_2_str
 This function is called by:
		_ui_disp_menu
 This function uses a non-reentrant model


 *************** function _ui_disp_str_num_ex *****************
 Defined at:
		line 87 in file "src/api/ui.c"
 Parameters:    Size  Location     Type
  str             2    7[BANK0 ] PTR unsigned char 
		 -> STR_23(5), 
  num             2    9[BANK0 ] unsigned int 
 Auto vars:     Size  Location     Type
		None
 Return value:  Size  Location     Type
                  1    wreg      void 
 Registers used:
		wreg, fsr0l, fsr0h, fsr1l, fsr1h, status,2, status,0, pclath, cstack
 Tracked objects:
		On entry : 
		On exit  : 
		Unchanged: 
 Data sizes:     COMMON   BANK0   BANK1   BANK2   BANK3   BANK4   BANK5   BANK6   BANK7   BANK8  BANK10  BANK11  BANK12
      Params:         0       4       0       0       0       0       0       0       0       0       0       0       0
      Locals:         0       0       0       0       0       0       0       0       0       0       0       0       0
      Temps:          0       2       0       0       0       0       0       0       0       0       0       0       0
      Totals:         0       6       0       0       0       0       0       0       0       0       0       0       0
Total ram usage:        6 bytes
 Hardware stack levels used:    1
 Hardware stack levels required when called:    5
 This function calls:
		___lwdiv
		___lwmod
		_lcd_clear_buffer
		_lcd_disp_str
		_m_mem_set
		_ui_mem_cpy
 This function is called by:
		_ui_disp_menu
 This function uses a non-reentrant model


 *************** function _ui_disp_small_flow_how_care *****************
 Defined at:
		line 387 in file "src/api/ui.c"
 Parameters:    Size  Location     Type
		None
 Auto vars:     Size  Location     Type
		None
 Return value:  Size  Location     Type
                  1    wreg      void 
 Registers used:
		wreg, fsr0l, fsr0h, fsr1l, fsr1h, status,2, status,0, pclath, cstack
 Tracked objects:
		On entry : 
		On exit  : 
		Unchanged: 
 Data sizes:     COMMON   BANK0   BANK1   BANK2   BANK3   BANK4   BANK5   BANK6   BANK7   BANK8  BANK10  BANK11  BANK12
      Params:         0       0       0       0       0       0       0       0       0       0       0       0       0
      Locals:         0       0       0       0       0       0       0       0       0       0       0       0       0
      Temps:          0       2       0       0       0       0       0       0       0       0       0       0       0
      Totals:         0       2       0       0       0       0       0       0       0       0       0       0       0
Total ram usage:        2 bytes
 Hardware stack levels used:    1
 Hardware stack levels required when called:    6
 This function calls:
		_ui_disp_str_num
 This function is called by:
		_ui_disp_menu
 This function uses a non-reentrant model


 *************** function _ui_disp_set_transferMoneyLimit *****************
 Defined at:
		line 492 in file "src/api/ui.c"
 Parameters:    Size  Location     Type
		None
 Auto vars:     Size  Location     Type
		None
 Return value:  Size  Location     Type
                  1    wreg      void 
 Registers used:
		wreg, fsr0l, fsr0h, fsr1l, fsr1h, status,2, status,0, pclath, cstack
 Tracked objects:
		On entry : 
		On exit  : 
		Unchanged: 
 Data sizes:     COMMON   BANK0   BANK1   BANK2   BANK3   BANK4   BANK5   BANK6   BANK7   BANK8  BANK10  BANK11  BANK12
      Params:         0       0       0       0       0       0       0       0       0       0       0       0       0
      Locals:         0       0       0       0       0       0       0       0       0       0       0       0       0
      Temps:          0       0       0       0       0       0       0       0       0       0       0       0       0
      Totals:         0       0       0       0       0       0       0       0       0       0       0       0       0
Total ram usage:        0 bytes
 Hardware stack levels used:    1
 Hardware stack levels required when called:    6
 This function calls:
		_ui_disp_str_num
 This function is called by:
		_ui_disp_menu
 This function uses a non-reentrant model


 *************** function _ui_disp_set_price *****************
 Defined at:
		line 472 in file "src/api/ui.c"
 Parameters:    Size  Location     Type
		None
 Auto vars:     Size  Location     Type
		None
 Return value:  Size  Location     Type
                  1    wreg      void 
 Registers used:
		wreg, fsr0l, fsr0h, fsr1l, fsr1h, status,2, status,0, pclath, cstack
 Tracked objects:
		On entry : 
		On exit  : 
		Unchanged: 
 Data sizes:     COMMON   BANK0   BANK1   BANK2   BANK3   BANK4   BANK5   BANK6   BANK7   BANK8  BANK10  BANK11  BANK12
      Params:         0       0       0       0       0       0       0       0       0       0       0       0       0
      Locals:         0       0       0       0       0       0       0       0       0       0       0       0       0
      Temps:          0       3       0       0       0       0       0       0       0       0       0       0       0
      Totals:         0       3       0       0       0       0       0       0       0       0       0       0       0
Total ram usage:        3 bytes
 Hardware stack levels used:    1
 Hardware stack levels required when called:    5
 This function calls:
		_lcd_clear_buffer
		_lcd_disp_dp
		_lcd_disp_str
		_m_mem_set
		_ui_head_hide
		_ui_uint32_2_str
 This function is called by:
		_ui_disp_menu
 This function uses a non-reentrant model


 *************** function _ui_disp_set_line *****************
 Defined at:
		line 352 in file "src/api/ui.c"
 Parameters:    Size  Location     Type
		None
 Auto vars:     Size  Location     Type
  t16             2   28[BANK0 ] unsigned int 
 Return value:  Size  Location     Type
                  1    wreg      void 
 Registers used:
		wreg, fsr0l, fsr0h, fsr1l, fsr1h, status,2, status,0, pclath, cstack
 Tracked objects:
		On entry : 
		On exit  : 
		Unchanged: 
 Data sizes:     COMMON   BANK0   BANK1   BANK2   BANK3   BANK4   BANK5   BANK6   BANK7   BANK8  BANK10  BANK11  BANK12
      Params:         0       0       0       0       0       0       0       0       0       0       0       0       0
      Locals:         0       2       0       0       0       0       0       0       0       0       0       0       0
      Temps:          0       2       0       0       0       0       0       0       0       0       0       0       0
      Totals:         0       4       0       0       0       0       0       0       0       0       0       0       0
Total ram usage:        4 bytes
 Hardware stack levels used:    1
 Hardware stack levels required when called:    5
 This function calls:
		_lcd_clear_buffer
		_lcd_disp_dp
		_lcd_disp_str
		_m_mem_set
		_ui_uint32_2_str
 This function is called by:
		_ui_disp_menu
 This function uses a non-reentrant model


 *************** function _ui_disp_set_imd_flow_uint *****************
 Defined at:
		line 540 in file "src/api/ui.c"
 Parameters:    Size  Location     Type
		None
 Auto vars:     Size  Location     Type
		None
 Return value:  Size  Location     Type
                  1    wreg      void 
 Registers used:
		wreg, fsr0l, fsr0h, fsr1l, fsr1h, status,2, status,0, pclath, cstack
 Tracked objects:
		On entry : 
		On exit  : 
		Unchanged: 
 Data sizes:     COMMON   BANK0   BANK1   BANK2   BANK3   BANK4   BANK5   BANK6   BANK7   BANK8  BANK10  BANK11  BANK12
      Params:         0       0       0       0       0       0       0       0       0       0       0       0       0
      Locals:         0       0       0       0       0       0       0       0       0       0       0       0       0
      Temps:          0       0       0       0       0       0       0       0       0       0       0       0       0
      Totals:         0       0       0       0       0       0       0       0       0       0       0       0       0
Total ram usage:        0 bytes
 Hardware stack levels used:    1
 Hardware stack levels required when called:    5
 This function calls:
		_lcd_clear_buffer
		_lcd_disp_str
 This function is called by:
		_ui_disp_menu
 This function uses a non-reentrant model


 *************** function _ui_disp_set_device_id *****************
 Defined at:
		line 496 in file "src/api/ui.c"
 Parameters:    Size  Location     Type
		None
 Auto vars:     Size  Location     Type
		None
 Return value:  Size  Location     Type
                  1    wreg      void 
 Registers used:
		wreg, fsr0l, fsr0h, fsr1l, fsr1h, status,2, status,0, pclath, cstack
 Tracked objects:
		On entry : 
		On exit  : 
		Unchanged: 
 Data sizes:     COMMON   BANK0   BANK1   BANK2   BANK3   BANK4   BANK5   BANK6   BANK7   BANK8  BANK10  BANK11  BANK12
      Params:         0       0       0       0       0       0       0       0       0       0       0       0       0
      Locals:         0       0       0       0       0       0       0       0       0       0       0       0       0
      Temps:          0       0       0       0       0       0       0       0       0       0       0       0       0
      Totals:         0       0       0       0       0       0       0       0       0       0       0       0       0
Total ram usage:        0 bytes
 Hardware stack levels used:    1
 Hardware stack levels required when called:    6
 This function calls:
		_ui_disp_str_num
 This function is called by:
		_ui_disp_menu
 This function uses a non-reentrant model


 *************** function _ui_disp_set_calib *****************
 Defined at:
		line 528 in file "src/api/ui.c"
 Parameters:    Size  Location     Type
		None
 Auto vars:     Size  Location     Type
  loc             1   29[BANK0 ] unsigned char 
 Return value:  Size  Location     Type
                  1    wreg      void 
 Registers used:
		wreg, fsr0l, fsr0h, fsr1l, fsr1h, status,2, status,0, pclath, cstack
 Tracked objects:
		On entry : 
		On exit  : 
		Unchanged: 
 Data sizes:     COMMON   BANK0   BANK1   BANK2   BANK3   BANK4   BANK5   BANK6   BANK7   BANK8  BANK10  BANK11  BANK12
      Params:         0       0       0       0       0       0       0       0       0       0       0       0       0
      Locals:         0       1       0       0       0       0       0       0       0       0       0       0       0
      Temps:          0       3       0       0       0       0       0       0       0       0       0       0       0
      Totals:         0       4       0       0       0       0       0       0       0       0       0       0       0
Total ram usage:        4 bytes
 Hardware stack levels used:    1
 Hardware stack levels required when called:    5
 This function calls:
		___awdiv
		___awmod
		___lbmod
		_lcd_clear_buffer
		_lcd_disp_dp
		_lcd_disp_str
		_m_mem_set
		_ui_head_hide
		_ui_uint32_2_str
 This function is called by:
		_ui_disp_menu
 This function uses a non-reentrant model


 *************** function ___awmod *****************
 Defined at:
		line 6 in file "C:\Program Files (x86)\Microchip\xc8\v1.42\sources\common\awmod.c"
 Parameters:    Size  Location     Type
  divisor         2    3[COMMON] int 
  dividend        2    5[COMMON] int 
 Auto vars:     Size  Location     Type
  sign            1    1[BANK0 ] unsigned char 
  counter         1    0[BANK0 ] unsigned char 
 Return value:  Size  Location     Type
                  2    3[COMMON] int 
 Registers used:
		wreg, status,2, status,0
 Tracked objects:
		On entry : 
		On exit  : 
		Unchanged: 
 Data sizes:     COMMON   BANK0   BANK1   BANK2   BANK3   BANK4   BANK5   BANK6   BANK7   BANK8  BANK10  BANK11  BANK12
      Params:         4       0       0       0       0       0       0       0       0       0       0       0       0
      Locals:         0       2       0       0       0       0       0       0       0       0       0       0       0
      Temps:          1       0       0       0       0       0       0       0       0       0       0       0       0
      Totals:         5       2       0       0       0       0       0       0       0       0       0       0       0
Total ram usage:        7 bytes
 Hardware stack levels used:    1
 Hardware stack levels required when called:    2
 This function calls:
		Nothing
 This function is called by:
		_ui_disp_set_calib
 This function uses a non-reentrant model


 *************** function _ui_disp_set_balanceWarning *****************
 Defined at:
		line 500 in file "src/api/ui.c"
 Parameters:    Size  Location     Type
		None
 Auto vars:     Size  Location     Type
		None
 Return value:  Size  Location     Type
                  1    wreg      void 
 Registers used:
		wreg, fsr0l, fsr0h, fsr1l, fsr1h, status,2, status,0, pclath, cstack
 Tracked objects:
		On entry : 
		On exit  : 
		Unchanged: 
 Data sizes:     COMMON   BANK0   BANK1   BANK2   BANK3   BANK4   BANK5   BANK6   BANK7   BANK8  BANK10  BANK11  BANK12
      Params:         0       0       0       0       0       0       0       0       0       0       0       0       0
      Locals:         0       0       0       0       0       0       0       0       0       0       0       0       0
      Temps:          0       0       0       0       0       0       0       0       0       0       0       0       0
      Totals:         0       0       0       0       0       0       0       0       0       0       0       0       0
Total ram usage:        0 bytes
 Hardware stack levels used:    1
 Hardware stack levels required when called:    6
 This function calls:
		_ui_disp_str_num
 This function is called by:
		_ui_disp_menu
 This function uses a non-reentrant model


 *************** function _ui_disp_set_balanceOff *****************
 Defined at:
		line 511 in file "src/api/ui.c"
 Parameters:    Size  Location     Type
		None
 Auto vars:     Size  Location     Type
		None
 Return value:  Size  Location     Type
                  1    wreg      void 
 Registers used:
		wreg, fsr0l, fsr0h, fsr1l, fsr1h, status,2, status,0, pclath, cstack
 Tracked objects:
		On entry : 
		On exit  : 
		Unchanged: 
 Data sizes:     COMMON   BANK0   BANK1   BANK2   BANK3   BANK4   BANK5   BANK6   BANK7   BANK8  BANK10  BANK11  BANK12
      Params:         0       0       0       0       0       0       0       0       0       0       0       0       0
      Locals:         0       0       0       0       0       0       0       0       0       0       0       0       0
      Temps:          0       0       0       0       0       0       0       0       0       0       0       0       0
      Totals:         0       0       0       0       0       0       0       0       0       0       0       0       0
Total ram usage:        0 bytes
 Hardware stack levels used:    1
 Hardware stack levels required when called:    6
 This function calls:
		_ui_disp_str_num
 This function is called by:
		_ui_disp_menu
 This function uses a non-reentrant model


 *************** function _ui_disp_modbus_id *****************
 Defined at:
		line 447 in file "src/api/ui.c"
 Parameters:    Size  Location     Type
		None
 Auto vars:     Size  Location     Type
		None
 Return value:  Size  Location     Type
                  1    wreg      void 
 Registers used:
		wreg, fsr0l, fsr0h, fsr1l, fsr1h, status,2, status,0, pclath, cstack
 Tracked objects:
		On entry : 
		On exit  : 
		Unchanged: 
 Data sizes:     COMMON   BANK0   BANK1   BANK2   BANK3   BANK4   BANK5   BANK6   BANK7   BANK8  BANK10  BANK11  BANK12
      Params:         0       0       0       0       0       0       0       0       0       0       0       0       0
      Locals:         0       0       0       0       0       0       0       0       0       0       0       0       0
      Temps:          0       2       0       0       0       0       0       0       0       0       0       0       0
      Totals:         0       2       0       0       0       0       0       0       0       0       0       0       0
Total ram usage:        2 bytes
 Hardware stack levels used:    1
 Hardware stack levels required when called:    6
 This function calls:
		_ui_disp_str_num
 This function is called by:
		_ui_disp_menu
 This function uses a non-reentrant model


 *************** function _ui_disp_str_num *****************
 Defined at:
		line 64 in file "src/api/ui.c"
 Parameters:    Size  Location     Type
  str             2    7[BANK0 ] PTR unsigned char 
		 -> STR_14(6), STR_13(6), STR_12(6), STR_11(6), 
		 -> STR_10(5), STR_9(4), STR_8(4), STR_6(7), 
		 -> STR_5(3), STR_2(7), 
  num             2    9[BANK0 ] unsigned int 
 Auto vars:     Size  Location     Type
		None
 Return value:  Size  Location     Type
                  1    wreg      void 
 Registers used:
		wreg, fsr0l, fsr0h, fsr1l, fsr1h, status,2, status,0, pclath, cstack
 Tracked objects:
		On entry : 
		On exit  : 
		Unchanged: 
 Data sizes:     COMMON   BANK0   BANK1   BANK2   BANK3   BANK4   BANK5   BANK6   BANK7   BANK8  BANK10  BANK11  BANK12
      Params:         0       4       0       0       0       0       0       0       0       0       0       0       0
      Locals:         0       0       0       0       0       0       0       0       0       0       0       0       0
      Temps:          0       2       0       0       0       0       0       0       0       0       0       0       0
      Totals:         0       6       0       0       0       0       0       0       0       0       0       0       0
Total ram usage:        6 bytes
 Hardware stack levels used:    1
 Hardware stack levels required when called:    5
 This function calls:
		___lwdiv
		___lwmod
		_lcd_clear_buffer
		_lcd_disp_str
		_m_mem_set
		_ui_mem_cpy
 This function is called by:
		_ui_start_display
		_ui_disp_small_flow_how_care
		_ui_disp_modbus_id
		_ui_disp_set_transferMoneyLimit
		_ui_disp_set_device_id
		_ui_disp_set_balanceWarning
		_ui_disp_set_balanceOff
		_ui_disp_set_line_reset
 This function uses a non-reentrant model


 *************** function _ui_mem_cpy *****************
 Defined at:
		line 56 in file "src/api/ui.c"
 Parameters:    Size  Location     Type
  d               1    wreg     PTR unsigned char 
		 -> lcdBuf(9), 
  s               2    3[COMMON] PTR unsigned char 
		 -> STR_23(5), STR_14(6), STR_13(6), STR_12(6), 
		 -> STR_11(6), STR_10(5), STR_9(4), STR_8(4), 
		 -> STR_6(7), STR_5(3), STR_2(7), 
 Auto vars:     Size  Location     Type
  d               1    7[COMMON] PTR unsigned char 
		 -> lcdBuf(9), 
  len             1    6[COMMON] unsigned char 
 Return value:  Size  Location     Type
                  1    wreg      void 
 Registers used:
		wreg, fsr0l, fsr0h, fsr1l, fsr1h, status,2, status,0, pclath
 Tracked objects:
		On entry : 
		On exit  : 
		Unchanged: 
 Data sizes:     COMMON   BANK0   BANK1   BANK2   BANK3   BANK4   BANK5   BANK6   BANK7   BANK8  BANK10  BANK11  BANK12
      Params:         2       0       0       0       0       0       0       0       0       0       0       0       0
      Locals:         2       0       0       0       0       0       0       0       0       0       0       0       0
      Temps:          1       0       0       0       0       0       0       0       0       0       0       0       0
      Totals:         5       0       0       0       0       0       0       0       0       0       0       0       0
Total ram usage:        5 bytes
 Hardware stack levels used:    1
 Hardware stack levels required when called:    2
 This function calls:
		Nothing
 This function is called by:
		_ui_disp_str_num
		_ui_disp_str_num_ex
 This function uses a non-reentrant model


 *************** function ___lwmod *****************
 Defined at:
		line 6 in file "C:\Program Files (x86)\Microchip\xc8\v1.42\sources\common\lwmod.c"
 Parameters:    Size  Location     Type
  divisor         2    3[COMMON] unsigned int 
  dividend        2    5[COMMON] unsigned int 
 Auto vars:     Size  Location     Type
  counter         1    0[BANK0 ] unsigned char 
 Return value:  Size  Location     Type
                  2    3[COMMON] unsigned int 
 Registers used:
		wreg, status,2, status,0
 Tracked objects:
		On entry : 
		On exit  : 
		Unchanged: 
 Data sizes:     COMMON   BANK0   BANK1   BANK2   BANK3   BANK4   BANK5   BANK6   BANK7   BANK8  BANK10  BANK11  BANK12
      Params:         4       0       0       0       0       0       0       0       0       0       0       0       0
      Locals:         0       1       0       0       0       0       0       0       0       0       0       0       0
      Temps:          1       0       0       0       0       0       0       0       0       0       0       0       0
      Totals:         5       1       0       0       0       0       0       0       0       0       0       0       0
Total ram usage:        6 bytes
 Hardware stack levels used:    1
 Hardware stack levels required when called:    2
 This function calls:
		Nothing
 This function is called by:
		_ui_disp_str_num
		_ui_disp_str_num_ex
 This function uses a non-reentrant model


 *************** function ___lwdiv *****************
 Defined at:
		line 6 in file "C:\Program Files (x86)\Microchip\xc8\v1.42\sources\common\lwdiv.c"
 Parameters:    Size  Location     Type
  divisor         2    3[COMMON] unsigned int 
  dividend        2    5[COMMON] unsigned int 
 Auto vars:     Size  Location     Type
  quotient        2    0[BANK0 ] unsigned int 
  counter         1    2[BANK0 ] unsigned char 
 Return value:  Size  Location     Type
                  2    3[COMMON] unsigned int 
 Registers used:
		wreg, status,2, status,0
 Tracked objects:
		On entry : 
		On exit  : 
		Unchanged: 
 Data sizes:     COMMON   BANK0   BANK1   BANK2   BANK3   BANK4   BANK5   BANK6   BANK7   BANK8  BANK10  BANK11  BANK12
      Params:         4       0       0       0       0       0       0       0       0       0       0       0       0
      Locals:         0       3       0       0       0       0       0       0       0       0       0       0       0
      Temps:          1       0       0       0       0       0       0       0       0       0       0       0       0
      Totals:         5       3       0       0       0       0       0       0       0       0       0       0       0
Total ram usage:        8 bytes
 Hardware stack levels used:    1
 Hardware stack levels required when called:    2
 This function calls:
		Nothing
 This function is called by:
		_ui_disp_str_num
		_ui_disp_str_num_ex
 This function uses a non-reentrant model


 *************** function _ui_disp_flow *****************
 Defined at:
		line 141 in file "src/api/ui.c"
 Parameters:    Size  Location     Type
		None
 Auto vars:     Size  Location     Type
  flw             4   29[BANK0 ] unsigned long 
  decnum          1   28[BANK0 ] unsigned char 
 Return value:  Size  Location     Type
                  1    wreg      void 
 Registers used:
		wreg, fsr0l, fsr0h, fsr1l, fsr1h, status,2, status,0, pclath, cstack
 Tracked objects:
		On entry : 
		On exit  : 
		Unchanged: 
 Data sizes:     COMMON   BANK0   BANK1   BANK2   BANK3   BANK4   BANK5   BANK6   BANK7   BANK8  BANK10  BANK11  BANK12
      Params:         0       0       0       0       0       0       0       0       0       0       0       0       0
      Locals:         0       5       0       0       0       0       0       0       0       0       0       0       0
      Temps:          0       2       0       0       0       0       0       0       0       0       0       0       0
      Totals:         0       7       0       0       0       0       0       0       0       0       0       0       0
Total ram usage:        7 bytes
 Hardware stack levels used:    1
 Hardware stack levels required when called:    6
 This function calls:
		___lldiv
		___lmul
		_lcd_clear_buffer
		_lcd_disp_dp
		_lcd_disp_str
		_m_mem_set
		_ui_disp_flow_error
		_ui_head_hide
		_ui_uint32_2_str
 This function is called by:
		_ui_disp_menu
 This function uses a non-reentrant model


 *************** function _ui_disp_clear_totale *****************
 Defined at:
		line 314 in file "src/api/ui.c"
 Parameters:    Size  Location     Type
		None
 Auto vars:     Size  Location     Type
		None
 Return value:  Size  Location     Type
                  1    wreg      void 
 Registers used:
		wreg, fsr0l, fsr0h, fsr1l, fsr1h, status,2, status,0, pclath, cstack
 Tracked objects:
		On entry : 
		On exit  : 
		Unchanged: 
 Data sizes:     COMMON   BANK0   BANK1   BANK2   BANK3   BANK4   BANK5   BANK6   BANK7   BANK8  BANK10  BANK11  BANK12
      Params:         0       0       0       0       0       0       0       0       0       0       0       0       0
      Locals:         0       0       0       0       0       0       0       0       0       0       0       0       0
      Temps:          0       0       0       0       0       0       0       0       0       0       0       0       0
      Totals:         0       0       0       0       0       0       0       0       0       0       0       0       0
Total ram usage:        0 bytes
 Hardware stack levels used:    1
 Hardware stack levels required when called:    7
 This function calls:
		_ui_disp_totale_v
 This function is called by:
		_ui_disp_menu
 This function uses a non-reentrant model


 *************** function _ui_disp_totale_v *****************
 Defined at:
		line 165 in file "src/api/ui.c"
 Parameters:    Size  Location     Type
		None
 Auto vars:     Size  Location     Type
  decnum          1   28[BANK0 ] unsigned char 
 Return value:  Size  Location     Type
                  1    wreg      void 
 Registers used:
		wreg, fsr0l, fsr0h, fsr1l, fsr1h, status,2, status,0, pclath, cstack
 Tracked objects:
		On entry : 
		On exit  : 
		Unchanged: 
 Data sizes:     COMMON   BANK0   BANK1   BANK2   BANK3   BANK4   BANK5   BANK6   BANK7   BANK8  BANK10  BANK11  BANK12
      Params:         0       0       0       0       0       0       0       0       0       0       0       0       0
      Locals:         0       1       0       0       0       0       0       0       0       0       0       0       0
      Temps:          0       2       0       0       0       0       0       0       0       0       0       0       0
      Totals:         0       3       0       0       0       0       0       0       0       0       0       0       0
Total ram usage:        3 bytes
 Hardware stack levels used:    1
 Hardware stack levels required when called:    6
 This function calls:
		_lcd_clear_buffer
		_lcd_disp_dp
		_lcd_disp_str
		_m_mem_set
		_ui_disp_flow_error
		_ui_head_hide
		_ui_uint32_2_str
 This function is called by:
		_ui_disp_clear_totale
		_ui_disp_menu
 This function uses a non-reentrant model


 *************** function _ui_disp_clear_balance *****************
 Defined at:
		line 341 in file "src/api/ui.c"
 Parameters:    Size  Location     Type
		None
 Auto vars:     Size  Location     Type
		None
 Return value:  Size  Location     Type
                  1    wreg      void 
 Registers used:
		wreg, fsr0l, fsr0h, fsr1l, fsr1h, status,2, status,0, pclath, cstack
 Tracked objects:
		On entry : 
		On exit  : 
		Unchanged: 
 Data sizes:     COMMON   BANK0   BANK1   BANK2   BANK3   BANK4   BANK5   BANK6   BANK7   BANK8  BANK10  BANK11  BANK12
      Params:         0       0       0       0       0       0       0       0       0       0       0       0       0
      Locals:         0       0       0       0       0       0       0       0       0       0       0       0       0
      Temps:          0       0       0       0       0       0       0       0       0       0       0       0       0
      Totals:         0       0       0       0       0       0       0       0       0       0       0       0       0
Total ram usage:        0 bytes
 Hardware stack levels used:    1
 Hardware stack levels required when called:    7
 This function calls:
		_ui_disp_balance_and_volume
 This function is called by:
		_ui_disp_menu
 This function uses a non-reentrant model


 *************** function _ui_key_process_enter *****************
 Defined at:
		line 198 in file "src/api/ui_key.c"
 Parameters:    Size  Location     Type
		None
 Auto vars:     Size  Location     Type
		None
 Return value:  Size  Location     Type
                  1    wreg      void 
 Registers used:
		wreg, fsr0l, fsr0h, fsr1l, fsr1h, status,2, status,0, pclath, cstack
 Tracked objects:
		On entry : 
		On exit  : 
		Unchanged: 
 Data sizes:     COMMON   BANK0   BANK1   BANK2   BANK3   BANK4   BANK5   BANK6   BANK7   BANK8  BANK10  BANK11  BANK12
      Params:         0       0       0       0       0       0       0       0       0       0       0       0       0
      Locals:         0       0       0       0       0       0       0       0       0       0       0       0       0
      Temps:          0       6       0       0       0       0       0       0       0       0       0       0       0
      Totals:         0       6       0       0       0       0       0       0       0       0       0       0       0
Total ram usage:        6 bytes
 Hardware stack levels used:    1
 Hardware stack levels required when called:    5
 This function calls:
		___aldiv
		___awdiv
		_m_mem_cpy_len
		_ui_key_waite_up
 This function is called by:
		_ui_key_process
 This function uses a non-reentrant model


 *************** function _ui_key_waite_up *****************
 Defined at:
		line 15 in file "src/api/ui_key.c"
 Parameters:    Size  Location     Type
		None
 Auto vars:     Size  Location     Type
  now             2    2[BANK0 ] unsigned int 
 Return value:  Size  Location     Type
                  2    0[BANK0 ] unsigned int 
 Registers used:
		wreg, status,2, status,0, pclath, cstack
 Tracked objects:
		On entry : 
		On exit  : 
		Unchanged: 
 Data sizes:     COMMON   BANK0   BANK1   BANK2   BANK3   BANK4   BANK5   BANK6   BANK7   BANK8  BANK10  BANK11  BANK12
      Params:         0       2       0       0       0       0       0       0       0       0       0       0       0
      Locals:         0       2       0       0       0       0       0       0       0       0       0       0       0
      Temps:          0       0       0       0       0       0       0       0       0       0       0       0       0
      Totals:         0       4       0       0       0       0       0       0       0       0       0       0       0
Total ram usage:        4 bytes
 Hardware stack levels used:    1
 Hardware stack levels required when called:    4
 This function calls:
		_get_globle_ticker
		_key_scan_call
		_set_globle_ticker
 This function is called by:
		_ui_key_process_enter
		_ui_key_process
 This function uses a non-reentrant model


 *************** function _set_globle_ticker *****************
 Defined at:
		line 18 in file "src/driver/timer.c"
 Parameters:    Size  Location     Type
  tk              2    3[COMMON] unsigned int 
 Auto vars:     Size  Location     Type
		None
 Return value:  Size  Location     Type
                  1    wreg      void 
 Registers used:
		wreg
 Tracked objects:
		On entry : 
		On exit  : 
		Unchanged: 
 Data sizes:     COMMON   BANK0   BANK1   BANK2   BANK3   BANK4   BANK5   BANK6   BANK7   BANK8  BANK10  BANK11  BANK12
      Params:         2       0       0       0       0       0       0       0       0       0       0       0       0
      Locals:         0       0       0       0       0       0       0       0       0       0       0       0       0
      Temps:          0       0       0       0       0       0       0       0       0       0       0       0       0
      Totals:         2       0       0       0       0       0       0       0       0       0       0       0       0
Total ram usage:        2 bytes
 Hardware stack levels used:    1
 Hardware stack levels required when called:    2
 This function calls:
		Nothing
 This function is called by:
		_ui_key_waite_up
		_ui_key_waite_up_ex
		_key_process_up_down_variable_speed_ex
 This function uses a non-reentrant model


 *************** function _get_globle_ticker *****************
 Defined at:
		line 24 in file "src/driver/timer.c"
 Parameters:    Size  Location     Type
		None
 Auto vars:     Size  Location     Type
  ret             2    5[COMMON] unsigned int 
 Return value:  Size  Location     Type
                  2    3[COMMON] unsigned int 
 Registers used:
		wreg
 Tracked objects:
		On entry : 
		On exit  : 
		Unchanged: 
 Data sizes:     COMMON   BANK0   BANK1   BANK2   BANK3   BANK4   BANK5   BANK6   BANK7   BANK8  BANK10  BANK11  BANK12
      Params:         2       0       0       0       0       0       0       0       0       0       0       0       0
      Locals:         2       0       0       0       0       0       0       0       0       0       0       0       0
      Temps:          0       0       0       0       0       0       0       0       0       0       0       0       0
      Totals:         4       0       0       0       0       0       0       0       0       0       0       0       0
Total ram usage:        4 bytes
 Hardware stack levels used:    1
 Hardware stack levels required when called:    2
 This function calls:
		Nothing
 This function is called by:
		_ui_key_waite_up
		_ui_key_waite_up_ex
		_key_process_up_down_variable_speed_ex
 This function uses a non-reentrant model


 *************** function _ui_key_process_down *****************
 Defined at:
		line 98 in file "src/api/ui_key.c"
 Parameters:    Size  Location     Type
		None
 Auto vars:     Size  Location     Type
		None
 Return value:  Size  Location     Type
                  1    wreg      unsigned char 
 Registers used:
		wreg, fsr0l, fsr0h, fsr1l, fsr1h, status,2, status,0, pclath, cstack
 Tracked objects:
		On entry : 
		On exit  : 
		Unchanged: 
 Data sizes:     COMMON   BANK0   BANK1   BANK2   BANK3   BANK4   BANK5   BANK6   BANK7   BANK8  BANK10  BANK11  BANK12
      Params:         0       0       0       0       0       0       0       0       0       0       0       0       0
      Locals:         0       0       0       0       0       0       0       0       0       0       0       0       0
      Temps:          0       1       0       0       0       0       0       0       0       0       0       0       0
      Totals:         0       1       0       0       0       0       0       0       0       0       0       0       0
Total ram usage:        1 bytes
 Hardware stack levels used:    1
 Hardware stack levels required when called:    5
 This function calls:
		_data_api_calibration_table_data_save
		_data_api_rt_data_save
		_m_mem_set
 This function is called by:
		_ui_key_process
 This function uses a non-reentrant model


 *************** function _ui_key_process_cancel *****************
 Defined at:
		line 264 in file "src/api/ui_key.c"
 Parameters:    Size  Location     Type
		None
 Auto vars:     Size  Location     Type
  ret             1   48[BANK0 ] unsigned char 
 Return value:  Size  Location     Type
                  1    wreg      void 
 Registers used:
		wreg, fsr0l, fsr0h, fsr1l, fsr1h, status,2, status,0, pclath, cstack
 Tracked objects:
		On entry : 
		On exit  : 
		Unchanged: 
 Data sizes:     COMMON   BANK0   BANK1   BANK2   BANK3   BANK4   BANK5   BANK6   BANK7   BANK8  BANK10  BANK11  BANK12
      Params:         0       0       0       0       0       0       0       0       0       0       0       0       0
      Locals:         0       1       0       0       0       0       0       0       0       0       0       0       0
      Temps:          0      10       0       0       0       0       0       0       0       0       0       0       0
      Totals:         0      11       0       0       0       0       0       0       0       0       0       0       0
Total ram usage:       11 bytes
 Hardware stack levels used:    1
 Hardware stack levels required when called:    5
 This function calls:
		___awdiv
		___wmul
		_data_api_calibration_table_data_save
 This function is called by:
		_ui_key_process
 This function uses a non-reentrant model


 *************** function _timer1_irq_callback *****************
 Defined at:
		line 52 in file "src/driver/timer.c"
 Parameters:    Size  Location     Type
		None
 Auto vars:     Size  Location     Type
		None
 Return value:  Size  Location     Type
                  1    wreg      void 
 Registers used:
		wreg, status,2, status,0, pclath, cstack
 Tracked objects:
		On entry : 
		On exit  : 
		Unchanged: 
 Data sizes:     COMMON   BANK0   BANK1   BANK2   BANK3   BANK4   BANK5   BANK6   BANK7   BANK8  BANK10  BANK11  BANK12
      Params:         0       0       0       0       0       0       0       0       0       0       0       0       0
      Locals:         0       0       0       0       0       0       0       0       0       0       0       0       0
      Temps:          1       0       0       0       0       0       0       0       0       0       0       0       0
      Totals:         1       0       0       0       0       0       0       0       0       0       0       0       0
Total ram usage:        1 bytes
 Hardware stack levels used:    1
 Hardware stack levels required when called:    3
 This function calls:
		_valve_stop
 This function is called by:
		_main
 This function uses a non-reentrant model


 *************** function _valve_stop *****************
 Defined at:
		line 39 in file "src/driver/other-gpio.c"
 Parameters:    Size  Location     Type
		None
 Auto vars:     Size  Location     Type
		None
 Return value:  Size  Location     Type
                  1    wreg      void 
 Registers used:
		wreg, status,2, status,0
 Tracked objects:
		On entry : 
		On exit  : 
		Unchanged: 
 Data sizes:     COMMON   BANK0   BANK1   BANK2   BANK3   BANK4   BANK5   BANK6   BANK7   BANK8  BANK10  BANK11  BANK12
      Params:         0       0       0       0       0       0       0       0       0       0       0       0       0
      Locals:         0       0       0       0       0       0       0       0       0       0       0       0       0
      Temps:          1       0       0       0       0       0       0       0       0       0       0       0       0
      Totals:         1       0       0       0       0       0       0       0       0       0       0       0       0
Total ram usage:        1 bytes
 Hardware stack levels used:    1
 Hardware stack levels required when called:    2
 This function calls:
		Nothing
 This function is called by:
		_timer1_irq_callback
 This function uses a non-reentrant model


 *************** function _timer0_irq_callback *****************
 Defined at:
		line 33 in file "src/driver/timer.c"
 Parameters:    Size  Location     Type
		None
 Auto vars:     Size  Location     Type
		None
 Return value:  Size  Location     Type
                  1    wreg      void 
 Registers used:
		wreg, status,2, status,0
 Tracked objects:
		On entry : 
		On exit  : 
		Unchanged: 
 Data sizes:     COMMON   BANK0   BANK1   BANK2   BANK3   BANK4   BANK5   BANK6   BANK7   BANK8  BANK10  BANK11  BANK12
      Params:         0       0       0       0       0       0       0       0       0       0       0       0       0
      Locals:         0       0       0       0       0       0       0       0       0       0       0       0       0
      Temps:          1       0       0       0       0       0       0       0       0       0       0       0       0
      Totals:         1       0       0       0       0       0       0       0       0       0       0       0       0
Total ram usage:        1 bytes
 Hardware stack levels used:    1
 Hardware stack levels required when called:    2
 This function calls:
		Nothing
 This function is called by:
		_main
 This function uses a non-reentrant model


 *************** function _rfid_comm_process *****************
 Defined at:
		line 194 in file "src/app/rfid_demo.c"
 Parameters:    Size  Location     Type
		None
 Auto vars:     Size  Location     Type
  ret             1    1[BANK3 ] unsigned char 
  valveCtrlfla    1    0[BANK3 ] unsigned char 
  result          1    0        enum E5491
 Return value:  Size  Location     Type
                  1    wreg      unsigned char 
 Registers used:
		wreg, fsr0l, fsr0h, fsr1l, fsr1h, status,2, status,0, pclath, cstack
 Tracked objects:
		On entry : 
		On exit  : 
		Unchanged: 
 Data sizes:     COMMON   BANK0   BANK1   BANK2   BANK3   BANK4   BANK5   BANK6   BANK7   BANK8  BANK10  BANK11  BANK12
      Params:         0       0       0       0       0       0       0       0       0       0       0       0       0
      Locals:         0       0       0       0       2       0       0       0       0       0       0       0       0
      Temps:          0       0       1       0       0       0       0       0       0       0       0       0       0
      Totals:         0       0       1       0       2       0       0       0       0       0       0       0       0
Total ram usage:        3 bytes
 Hardware stack levels used:    1
 Hardware stack levels required when called:   10
 This function calls:
		_delay
		_in_app_vavle_off
		_in_app_vavle_on
		_key_scan_call
		_lcd_disp_str
		_mfapi_is_new_card_present
		_picc_halt_a
		_picc_select
		_picc_stop_cryptol
		_rfid_comm_process_read_dec
		_rfid_comm_process_read_header
		_rfid_comm_process_read_inc
		_rfid_comm_process_recharge
		_ui_disp_balance_and_volume
 This function is called by:
		_main
 This function uses a non-reentrant model


 *************** function _ui_disp_balance_and_volume *****************
 Defined at:
		line 267 in file "src/api/ui.c"
 Parameters:    Size  Location     Type
		None
 Auto vars:     Size  Location     Type
  ret             1   28[BANK0 ] unsigned char 
 Return value:  Size  Location     Type
                  1    wreg      void 
 Registers used:
		wreg, fsr0l, fsr0h, fsr1l, fsr1h, status,2, status,0, pclath, cstack
 Tracked objects:
		On entry : 
		On exit  : 
		Unchanged: 
 Data sizes:     COMMON   BANK0   BANK1   BANK2   BANK3   BANK4   BANK5   BANK6   BANK7   BANK8  BANK10  BANK11  BANK12
      Params:         0       0       0       0       0       0       0       0       0       0       0       0       0
      Locals:         0       1       0       0       0       0       0       0       0       0       0       0       0
      Temps:          0       2       0       0       0       0       0       0       0       0       0       0       0
      Totals:         0       3       0       0       0       0       0       0       0       0       0       0       0
Total ram usage:        3 bytes
 Hardware stack levels used:    1
 Hardware stack levels required when called:    6
 This function calls:
		___aldiv
		_lcd_clear_buffer
		_lcd_disp_cln
		_lcd_disp_dp
		_lcd_disp_str
		_m_mem_set
		_ui_disp_flow_error
		_ui_head_hide
		_ui_uint32_2_str
 This function is called by:
		_ui_disp_clear_balance
		_ui_disp_menu
		_rfid_comm_process
 This function uses a non-reentrant model


 *************** function _ui_uint32_2_str *****************
 Defined at:
		line 25 in file "src/api/ui.c"
 Parameters:    Size  Location     Type
  buf             1    wreg     PTR unsigned char 
		 -> lcdBuf(9), 
  x               4   17[BANK0 ] long 
  len             1   21[BANK0 ] unsigned char 
 Auto vars:     Size  Location     Type
  buf             1    7[COMMON] PTR unsigned char 
		 -> lcdBuf(9), 
 Return value:  Size  Location     Type
                  1    wreg      void 
 Registers used:
		wreg, fsr0l, fsr0h, fsr1l, fsr1h, status,2, status,0, pclath, cstack
 Tracked objects:
		On entry : 
		On exit  : 
		Unchanged: 
 Data sizes:     COMMON   BANK0   BANK1   BANK2   BANK3   BANK4   BANK5   BANK6   BANK7   BANK8  BANK10  BANK11  BANK12
      Params:         0       5       0       0       0       0       0       0       0       0       0       0       0
      Locals:         1       0       0       0       0       0       0       0       0       0       0       0       0
      Temps:          0       4       0       0       0       0       0       0       0       0       0       0       0
      Totals:         1       9       0       0       0       0       0       0       0       0       0       0       0
Total ram usage:       10 bytes
 Hardware stack levels used:    1
 Hardware stack levels required when called:    4
 This function calls:
		___aldiv
		___almod
		_m_math_pow
 This function is called by:
		_ui_disp_flow
		_ui_disp_totale_v
		_ui_disp_transfer_money
		_ui_disp_balance_and_volume
		_ui_disp_set_line
		_ui_disp_set_price
		_ui_disp_set_calib
 This function uses a non-reentrant model


 *************** function _m_math_pow *****************
 Defined at:
		line 116 in file "src/depend/m_string.c"
 Parameters:    Size  Location     Type
  x               4    8[BANK0 ] long 
  y               1   12[BANK0 ] unsigned char 
 Auto vars:     Size  Location     Type
  ret             4   13[BANK0 ] long 
 Return value:  Size  Location     Type
                  4    8[BANK0 ] long 
 Registers used:
		wreg, status,2, status,0, pclath, cstack
 Tracked objects:
		On entry : 
		On exit  : 
		Unchanged: 
 Data sizes:     COMMON   BANK0   BANK1   BANK2   BANK3   BANK4   BANK5   BANK6   BANK7   BANK8  BANK10  BANK11  BANK12
      Params:         0       5       0       0       0       0       0       0       0       0       0       0       0
      Locals:         0       4       0       0       0       0       0       0       0       0       0       0       0
      Temps:          0       0       0       0       0       0       0       0       0       0       0       0       0
      Totals:         0       9       0       0       0       0       0       0       0       0       0       0       0
Total ram usage:        9 bytes
 Hardware stack levels used:    1
 Hardware stack levels required when called:    3
 This function calls:
		___lmul
 This function is called by:
		_ui_uint32_2_str
 This function uses a non-reentrant model


 *************** function ___almod *****************
 Defined at:
		line 5 in file "C:\Program Files (x86)\Microchip\xc8\v1.42\sources\common\almod.c"
 Parameters:    Size  Location     Type
  divisor         4    0[BANK0 ] long 
  dividend        4    4[BANK0 ] long 
 Auto vars:     Size  Location     Type
  sign            1    5[COMMON] unsigned char 
  counter         1    4[COMMON] unsigned char 
 Return value:  Size  Location     Type
                  4    0[BANK0 ] long 
 Registers used:
		wreg, status,2, status,0
 Tracked objects:
		On entry : 
		On exit  : 
		Unchanged: 
 Data sizes:     COMMON   BANK0   BANK1   BANK2   BANK3   BANK4   BANK5   BANK6   BANK7   BANK8  BANK10  BANK11  BANK12
      Params:         0       8       0       0       0       0       0       0       0       0       0       0       0
      Locals:         2       0       0       0       0       0       0       0       0       0       0       0       0
      Temps:          1       0       0       0       0       0       0       0       0       0       0       0       0
      Totals:         3       8       0       0       0       0       0       0       0       0       0       0       0
Total ram usage:       11 bytes
 Hardware stack levels used:    1
 Hardware stack levels required when called:    2
 This function calls:
		Nothing
 This function is called by:
		_ui_uint32_2_str
 This function uses a non-reentrant model


 *************** function _ui_head_hide *****************
 Defined at:
		line 36 in file "src/api/ui.c"
 Parameters:    Size  Location     Type
  str             1    wreg     PTR unsigned char 
		 -> lcdBuf(9), 
  loc             1    3[COMMON] unsigned char 
 Auto vars:     Size  Location     Type
  str             1    6[COMMON] PTR unsigned char 
		 -> lcdBuf(9), 
  ret             1    5[COMMON] unsigned char 
 Return value:  Size  Location     Type
                  1    wreg      unsigned char 
 Registers used:
		wreg, fsr1l, fsr1h, status,2, status,0
 Tracked objects:
		On entry : 
		On exit  : 
		Unchanged: 
 Data sizes:     COMMON   BANK0   BANK1   BANK2   BANK3   BANK4   BANK5   BANK6   BANK7   BANK8  BANK10  BANK11  BANK12
      Params:         1       0       0       0       0       0       0       0       0       0       0       0       0
      Locals:         2       0       0       0       0       0       0       0       0       0       0       0       0
      Temps:          1       0       0       0       0       0       0       0       0       0       0       0       0
      Totals:         4       0       0       0       0       0       0       0       0       0       0       0       0
Total ram usage:        4 bytes
 Hardware stack levels used:    1
 Hardware stack levels required when called:    2
 This function calls:
		Nothing
 This function is called by:
		_ui_disp_flow
		_ui_disp_totale_v
		_ui_disp_transfer_money
		_ui_disp_balance_and_volume
		_ui_disp_set_price
		_ui_disp_set_calib
 This function uses a non-reentrant model


 *************** function _ui_disp_flow_error *****************
 Defined at:
		line 136 in file "src/api/ui.c"
 Parameters:    Size  Location     Type
		None
 Auto vars:     Size  Location     Type
		None
 Return value:  Size  Location     Type
                  1    wreg      void 
 Registers used:
		wreg, fsr0l, fsr0h, fsr1l, fsr1h, status,2, status,0, pclath, cstack
 Tracked objects:
		On entry : 
		On exit  : 
		Unchanged: 
 Data sizes:     COMMON   BANK0   BANK1   BANK2   BANK3   BANK4   BANK5   BANK6   BANK7   BANK8  BANK10  BANK11  BANK12
      Params:         0       0       0       0       0       0       0       0       0       0       0       0       0
      Locals:         0       0       0       0       0       0       0       0       0       0       0       0       0
      Temps:          0       0       0       0       0       0       0       0       0       0       0       0       0
      Totals:         0       0       0       0       0       0       0       0       0       0       0       0       0
Total ram usage:        0 bytes
 Hardware stack levels used:    1
 Hardware stack levels required when called:    5
 This function calls:
		_lcd_clear_buffer
		_lcd_disp_str
 This function is called by:
		_ui_disp_flow
		_ui_disp_totale_v
		_ui_disp_balance_and_volume
 This function uses a non-reentrant model


 *************** function _lcd_disp_str *****************
 Defined at:
		line 180 in file "src/driver/lcd.c"
 Parameters:    Size  Location     Type
  str             2    2[BANK0 ] PTR unsigned char 
		 -> STR_24(9), STR_22(9), STR_21(9), STR_20(9), 
		 -> STR_19(9), STR_18(9), STR_17(9), STR_16(9), 
		 -> STR_15(9), STR_7(9), STR_4(9), STR_3(9), 
		 -> STR_1(9), lcdBuf(9), 
 Auto vars:     Size  Location     Type
  index           1    6[BANK0 ] unsigned char 
  loc             1    5[BANK0 ] unsigned char 
 Return value:  Size  Location     Type
                  1    wreg      void 
 Registers used:
		wreg, fsr0l, fsr0h, fsr1l, fsr1h, status,2, status,0, pclath, cstack
 Tracked objects:
		On entry : 
		On exit  : 
		Unchanged: 
 Data sizes:     COMMON   BANK0   BANK1   BANK2   BANK3   BANK4   BANK5   BANK6   BANK7   BANK8  BANK10  BANK11  BANK12
      Params:         0       2       0       0       0       0       0       0       0       0       0       0       0
      Locals:         0       2       0       0       0       0       0       0       0       0       0       0       0
      Temps:          0       1       0       0       0       0       0       0       0       0       0       0       0
      Totals:         0       5       0       0       0       0       0       0       0       0       0       0       0
Total ram usage:        5 bytes
 Hardware stack levels used:    1
 Hardware stack levels required when called:    4
 This function calls:
		_lcd_disp_code
		_lcd_disp_refresh
 This function is called by:
		_ui_disp_str_num
		_ui_disp_str_num_ex
		_ui_start_display
		_ui_disp_flow_error
		_ui_disp_flow
		_ui_disp_totale_v
		_ui_disp_transfer_money
		_ui_disp_balance_and_volume
		_ui_disp_set_line
		_ui_disp_set_price
		_ui_disp_set_calib
		_ui_disp_set_imd_flow_uint
		_ui_disp_menu
		_rfid_comm_process
		_ui_disp_recharge
		_ui_disp_clear_card_id
 This function uses a non-reentrant model


 *************** function _lcd_disp_refresh *****************
 Defined at:
		line 202 in file "src/driver/lcd.c"
 Parameters:    Size  Location     Type
		None
 Auto vars:     Size  Location     Type
		None
 Return value:  Size  Location     Type
                  1    wreg      void 
 Registers used:
		wreg, fsr1l, fsr1h, status,2, status,0, pclath, cstack
 Tracked objects:
		On entry : 
		On exit  : 
		Unchanged: 
 Data sizes:     COMMON   BANK0   BANK1   BANK2   BANK3   BANK4   BANK5   BANK6   BANK7   BANK8  BANK10  BANK11  BANK12
      Params:         0       0       0       0       0       0       0       0       0       0       0       0       0
      Locals:         0       0       0       0       0       0       0       0       0       0       0       0       0
      Temps:          0       1       0       0       0       0       0       0       0       0       0       0       0
      Totals:         0       1       0       0       0       0       0       0       0       0       0       0       0
Total ram usage:        1 bytes
 Hardware stack levels used:    1
 Hardware stack levels required when called:    3
 This function calls:
		_m_mem_cpy_len
 This function is called by:
		_ui_disp_menu
		_lcd_disp_str
 This function uses a non-reentrant model


 *************** function _lcd_disp_code *****************
 Defined at:
		line 157 in file "src/driver/lcd.c"
 Parameters:    Size  Location     Type
  code            1    wreg     unsigned char 
  loc             1    5[COMMON] unsigned char 
 Auto vars:     Size  Location     Type
  code            1    6[COMMON] unsigned char 
 Return value:  Size  Location     Type
                  1    wreg      void 
 Registers used:
		wreg, fsr0l, fsr0h, status,2, status,0, pclath, cstack
 Tracked objects:
		On entry : 
		On exit  : 
		Unchanged: 
 Data sizes:     COMMON   BANK0   BANK1   BANK2   BANK3   BANK4   BANK5   BANK6   BANK7   BANK8  BANK10  BANK11  BANK12
      Params:         1       0       0       0       0       0       0       0       0       0       0       0       0
      Locals:         1       0       0       0       0       0       0       0       0       0       0       0       0
      Temps:          0       0       0       0       0       0       0       0       0       0       0       0       0
      Totals:         2       0       0       0       0       0       0       0       0       0       0       0       0
Total ram usage:        2 bytes
 Hardware stack levels used:    1
 Hardware stack levels required when called:    3
 This function calls:
		_lcd_disp_code_0
		_lcd_disp_code_1
		_lcd_disp_code_2
		_lcd_disp_code_3
		_lcd_disp_code_4
		_lcd_disp_code_5
		_lcd_disp_code_6
		_lcd_disp_code_7
 This function is called by:
		_lcd_disp_str
 This function uses a non-reentrant model


 *************** function _lcd_disp_code_7 *****************
 Defined at:
		line 145 in file "src/driver/lcd.c"
 Parameters:    Size  Location     Type
  code            1    wreg     unsigned char 
 Auto vars:     Size  Location     Type
  code            1    4[COMMON] unsigned char 
 Return value:  Size  Location     Type
                  1    wreg      void 
 Registers used:
		wreg, status,2, status,0
 Tracked objects:
		On entry : 
		On exit  : 
		Unchanged: 
 Data sizes:     COMMON   BANK0   BANK1   BANK2   BANK3   BANK4   BANK5   BANK6   BANK7   BANK8  BANK10  BANK11  BANK12
      Params:         0       0       0       0       0       0       0       0       0       0       0       0       0
      Locals:         1       0       0       0       0       0       0       0       0       0       0       0       0
      Temps:          1       0       0       0       0       0       0       0       0       0       0       0       0
      Totals:         2       0       0       0       0       0       0       0       0       0       0       0       0
Total ram usage:        2 bytes
 Hardware stack levels used:    1
 Hardware stack levels required when called:    2
 This function calls:
		Nothing
 This function is called by:
		_lcd_disp_code
 This function uses a non-reentrant model


 *************** function _lcd_disp_code_6 *****************
 Defined at:
		line 133 in file "src/driver/lcd.c"
 Parameters:    Size  Location     Type
  code            1    wreg     unsigned char 
 Auto vars:     Size  Location     Type
  code            1    4[COMMON] unsigned char 
 Return value:  Size  Location     Type
                  1    wreg      void 
 Registers used:
		wreg, status,2, status,0
 Tracked objects:
		On entry : 
		On exit  : 
		Unchanged: 
 Data sizes:     COMMON   BANK0   BANK1   BANK2   BANK3   BANK4   BANK5   BANK6   BANK7   BANK8  BANK10  BANK11  BANK12
      Params:         0       0       0       0       0       0       0       0       0       0       0       0       0
      Locals:         1       0       0       0       0       0       0       0       0       0       0       0       0
      Temps:          1       0       0       0       0       0       0       0       0       0       0       0       0
      Totals:         2       0       0       0       0       0       0       0       0       0       0       0       0
Total ram usage:        2 bytes
 Hardware stack levels used:    1
 Hardware stack levels required when called:    2
 This function calls:
		Nothing
 This function is called by:
		_lcd_disp_code
 This function uses a non-reentrant model


 *************** function _lcd_disp_code_5 *****************
 Defined at:
		line 121 in file "src/driver/lcd.c"
 Parameters:    Size  Location     Type
  code            1    wreg     unsigned char 
 Auto vars:     Size  Location     Type
  code            1    4[COMMON] unsigned char 
 Return value:  Size  Location     Type
                  1    wreg      void 
 Registers used:
		wreg, status,2, status,0
 Tracked objects:
		On entry : 
		On exit  : 
		Unchanged: 
 Data sizes:     COMMON   BANK0   BANK1   BANK2   BANK3   BANK4   BANK5   BANK6   BANK7   BANK8  BANK10  BANK11  BANK12
      Params:         0       0       0       0       0       0       0       0       0       0       0       0       0
      Locals:         1       0       0       0       0       0       0       0       0       0       0       0       0
      Temps:          1       0       0       0       0       0       0       0       0       0       0       0       0
      Totals:         2       0       0       0       0       0       0       0       0       0       0       0       0
Total ram usage:        2 bytes
 Hardware stack levels used:    1
 Hardware stack levels required when called:    2
 This function calls:
		Nothing
 This function is called by:
		_lcd_disp_code
 This function uses a non-reentrant model


 *************** function _lcd_disp_code_4 *****************
 Defined at:
		line 109 in file "src/driver/lcd.c"
 Parameters:    Size  Location     Type
  code            1    wreg     unsigned char 
 Auto vars:     Size  Location     Type
  code            1    4[COMMON] unsigned char 
 Return value:  Size  Location     Type
                  1    wreg      void 
 Registers used:
		wreg, status,2, status,0
 Tracked objects:
		On entry : 
		On exit  : 
		Unchanged: 
 Data sizes:     COMMON   BANK0   BANK1   BANK2   BANK3   BANK4   BANK5   BANK6   BANK7   BANK8  BANK10  BANK11  BANK12
      Params:         0       0       0       0       0       0       0       0       0       0       0       0       0
      Locals:         1       0       0       0       0       0       0       0       0       0       0       0       0
      Temps:          1       0       0       0       0       0       0       0       0       0       0       0       0
      Totals:         2       0       0       0       0       0       0       0       0       0       0       0       0
Total ram usage:        2 bytes
 Hardware stack levels used:    1
 Hardware stack levels required when called:    2
 This function calls:
		Nothing
 This function is called by:
		_lcd_disp_code
 This function uses a non-reentrant model


 *************** function _lcd_disp_code_3 *****************
 Defined at:
		line 97 in file "src/driver/lcd.c"
 Parameters:    Size  Location     Type
  code            1    wreg     unsigned char 
 Auto vars:     Size  Location     Type
  code            1    4[COMMON] unsigned char 
 Return value:  Size  Location     Type
                  1    wreg      void 
 Registers used:
		wreg, status,2, status,0
 Tracked objects:
		On entry : 
		On exit  : 
		Unchanged: 
 Data sizes:     COMMON   BANK0   BANK1   BANK2   BANK3   BANK4   BANK5   BANK6   BANK7   BANK8  BANK10  BANK11  BANK12
      Params:         0       0       0       0       0       0       0       0       0       0       0       0       0
      Locals:         1       0       0       0       0       0       0       0       0       0       0       0       0
      Temps:          1       0       0       0       0       0       0       0       0       0       0       0       0
      Totals:         2       0       0       0       0       0       0       0       0       0       0       0       0
Total ram usage:        2 bytes
 Hardware stack levels used:    1
 Hardware stack levels required when called:    2
 This function calls:
		Nothing
 This function is called by:
		_lcd_disp_code
 This function uses a non-reentrant model


 *************** function _lcd_disp_code_2 *****************
 Defined at:
		line 85 in file "src/driver/lcd.c"
 Parameters:    Size  Location     Type
  code            1    wreg     unsigned char 
 Auto vars:     Size  Location     Type
  code            1    4[COMMON] unsigned char 
 Return value:  Size  Location     Type
                  1    wreg      void 
 Registers used:
		wreg, status,2, status,0
 Tracked objects:
		On entry : 
		On exit  : 
		Unchanged: 
 Data sizes:     COMMON   BANK0   BANK1   BANK2   BANK3   BANK4   BANK5   BANK6   BANK7   BANK8  BANK10  BANK11  BANK12
      Params:         0       0       0       0       0       0       0       0       0       0       0       0       0
      Locals:         1       0       0       0       0       0       0       0       0       0       0       0       0
      Temps:          1       0       0       0       0       0       0       0       0       0       0       0       0
      Totals:         2       0       0       0       0       0       0       0       0       0       0       0       0
Total ram usage:        2 bytes
 Hardware stack levels used:    1
 Hardware stack levels required when called:    2
 This function calls:
		Nothing
 This function is called by:
		_lcd_disp_code
 This function uses a non-reentrant model


 *************** function _lcd_disp_code_1 *****************
 Defined at:
		line 73 in file "src/driver/lcd.c"
 Parameters:    Size  Location     Type
  code            1    wreg     unsigned char 
 Auto vars:     Size  Location     Type
  code            1    4[COMMON] unsigned char 
 Return value:  Size  Location     Type
                  1    wreg      void 
 Registers used:
		wreg, status,2, status,0
 Tracked objects:
		On entry : 
		On exit  : 
		Unchanged: 
 Data sizes:     COMMON   BANK0   BANK1   BANK2   BANK3   BANK4   BANK5   BANK6   BANK7   BANK8  BANK10  BANK11  BANK12
      Params:         0       0       0       0       0       0       0       0       0       0       0       0       0
      Locals:         1       0       0       0       0       0       0       0       0       0       0       0       0
      Temps:          1       0       0       0       0       0       0       0       0       0       0       0       0
      Totals:         2       0       0       0       0       0       0       0       0       0       0       0       0
Total ram usage:        2 bytes
 Hardware stack levels used:    1
 Hardware stack levels required when called:    2
 This function calls:
		Nothing
 This function is called by:
		_lcd_disp_code
 This function uses a non-reentrant model


 *************** function _lcd_disp_code_0 *****************
 Defined at:
		line 61 in file "src/driver/lcd.c"
 Parameters:    Size  Location     Type
  code            1    wreg     unsigned char 
 Auto vars:     Size  Location     Type
  code            1    4[COMMON] unsigned char 
 Return value:  Size  Location     Type
                  1    wreg      void 
 Registers used:
		wreg, status,2, status,0
 Tracked objects:
		On entry : 
		On exit  : 
		Unchanged: 
 Data sizes:     COMMON   BANK0   BANK1   BANK2   BANK3   BANK4   BANK5   BANK6   BANK7   BANK8  BANK10  BANK11  BANK12
      Params:         0       0       0       0       0       0       0       0       0       0       0       0       0
      Locals:         1       0       0       0       0       0       0       0       0       0       0       0       0
      Temps:          1       0       0       0       0       0       0       0       0       0       0       0       0
      Totals:         2       0       0       0       0       0       0       0       0       0       0       0       0
Total ram usage:        2 bytes
 Hardware stack levels used:    1
 Hardware stack levels required when called:    2
 This function calls:
		Nothing
 This function is called by:
		_lcd_disp_code
 This function uses a non-reentrant model


 *************** function _lcd_clear_buffer *****************
 Defined at:
		line 207 in file "src/driver/lcd.c"
 Parameters:    Size  Location     Type
		None
 Auto vars:     Size  Location     Type
		None
 Return value:  Size  Location     Type
                  1    wreg      void 
 Registers used:
		wreg, fsr1l, fsr1h, status,2, status,0, pclath, cstack
 Tracked objects:
		On entry : 
		On exit  : 
		Unchanged: 
 Data sizes:     COMMON   BANK0   BANK1   BANK2   BANK3   BANK4   BANK5   BANK6   BANK7   BANK8  BANK10  BANK11  BANK12
      Params:         0       0       0       0       0       0       0       0       0       0       0       0       0
      Locals:         0       0       0       0       0       0       0       0       0       0       0       0       0
      Temps:          1       0       0       0       0       0       0       0       0       0       0       0       0
      Totals:         1       0       0       0       0       0       0       0       0       0       0       0       0
Total ram usage:        1 bytes
 Hardware stack levels used:    1
 Hardware stack levels required when called:    3
 This function calls:
		_m_mem_set
 This function is called by:
		_ui_disp_str_num
		_ui_disp_str_num_ex
		_ui_disp_flow_error
		_ui_disp_flow
		_ui_disp_totale_v
		_ui_disp_transfer_money
		_ui_disp_balance_and_volume
		_ui_disp_set_line
		_ui_disp_set_price
		_ui_disp_set_calib
		_ui_disp_set_imd_flow_uint
		_ui_disp_menu
 This function uses a non-reentrant model


 *************** function _lcd_disp_dp *****************
 Defined at:
		line 41 in file "src/driver/lcd.c"
 Parameters:    Size  Location     Type
  dec             1    wreg     unsigned char 
  show            1   18[BANK0 ] unsigned char 
 Auto vars:     Size  Location     Type
  dec             1   21[BANK0 ] unsigned char 
 Return value:  Size  Location     Type
                  1    wreg      void 
 Registers used:
		wreg, fsr0l, fsr0h, fsr1l, fsr1h, status,2, status,0, pclath, cstack
 Tracked objects:
		On entry : 
		On exit  : 
		Unchanged: 
 Data sizes:     COMMON   BANK0   BANK1   BANK2   BANK3   BANK4   BANK5   BANK6   BANK7   BANK8  BANK10  BANK11  BANK12
      Params:         0       1       0       0       0       0       0       0       0       0       0       0       0
      Locals:         0       1       0       0       0       0       0       0       0       0       0       0       0
      Temps:          0       2       0       0       0       0       0       0       0       0       0       0       0
      Totals:         0       4       0       0       0       0       0       0       0       0       0       0       0
Total ram usage:        4 bytes
 Hardware stack levels used:    1
 Hardware stack levels required when called:    4
 This function calls:
		_lcd_set_com_seg
 This function is called by:
		_ui_disp_flow
		_ui_disp_totale_v
		_ui_disp_balance_and_volume
		_ui_disp_set_line
		_ui_disp_set_price
		_ui_disp_set_calib
 This function uses a non-reentrant model


 *************** function _lcd_disp_cln *****************
 Defined at:
		line 55 in file "src/driver/lcd.c"
 Parameters:    Size  Location     Type
  show            1    wreg     unsigned char 
 Auto vars:     Size  Location     Type
  show            1   20[BANK0 ] unsigned char 
 Return value:  Size  Location     Type
                  1    wreg      void 
 Registers used:
		wreg, fsr1l, fsr1h, status,2, status,0, pclath, cstack
 Tracked objects:
		On entry : 
		On exit  : 
		Unchanged: 
 Data sizes:     COMMON   BANK0   BANK1   BANK2   BANK3   BANK4   BANK5   BANK6   BANK7   BANK8  BANK10  BANK11  BANK12
      Params:         0       0       0       0       0       0       0       0       0       0       0       0       0
      Locals:         0       1       0       0       0       0       0       0       0       0       0       0       0
      Temps:          0       2       0       0       0       0       0       0       0       0       0       0       0
      Totals:         0       3       0       0       0       0       0       0       0       0       0       0       0
Total ram usage:        3 bytes
 Hardware stack levels used:    1
 Hardware stack levels required when called:    4
 This function calls:
		_lcd_set_com_seg
 This function is called by:
		_ui_disp_balance_and_volume
 This function uses a non-reentrant model


 *************** function _lcd_set_com_seg *****************
 Defined at:
		line 25 in file "src/driver/lcd.c"
 Parameters:    Size  Location     Type
  com             1    wreg     unsigned char 
  seg             1    8[BANK0 ] unsigned char 
  show            1    9[BANK0 ] unsigned char 
 Auto vars:     Size  Location     Type
  com             1   15[BANK0 ] unsigned char 
  bloc            1   17[BANK0 ] unsigned char 
  p               1   16[BANK0 ] PTR unsigned char 
		 -> pLCD(24), 
  addr            1   14[BANK0 ] unsigned char 
 Return value:  Size  Location     Type
                  2    8[BANK0 ] int 
 Registers used:
		wreg, fsr1l, fsr1h, status,2, status,0, pclath, cstack
 Tracked objects:
		On entry : 
		On exit  : 
		Unchanged: 
 Data sizes:     COMMON   BANK0   BANK1   BANK2   BANK3   BANK4   BANK5   BANK6   BANK7   BANK8  BANK10  BANK11  BANK12
      Params:         0       2       0       0       0       0       0       0       0       0       0       0       0
      Locals:         0       4       0       0       0       0       0       0       0       0       0       0       0
      Temps:          0       4       0       0       0       0       0       0       0       0       0       0       0
      Totals:         0      10       0       0       0       0       0       0       0       0       0       0       0
Total ram usage:       10 bytes
 Hardware stack levels used:    1
 Hardware stack levels required when called:    3
 This function calls:
		___awdiv
		___bmul
		___lbmod
 This function is called by:
		_lcd_disp_dp
		_lcd_disp_cln
 This function uses a non-reentrant model


 *************** function ___lbmod *****************
 Defined at:
		line 4 in file "C:\Program Files (x86)\Microchip\xc8\v1.42\sources\common\lbmod.c"
 Parameters:    Size  Location     Type
  dividend        1    wreg     unsigned char 
  divisor         1    3[COMMON] unsigned char 
 Auto vars:     Size  Location     Type
  dividend        1    0[BANK0 ] unsigned char 
  rem             1    2[BANK0 ] unsigned char 
  counter         1    1[BANK0 ] unsigned char 
 Return value:  Size  Location     Type
                  1    wreg      unsigned char 
 Registers used:
		wreg, status,2, status,0
 Tracked objects:
		On entry : 
		On exit  : 
		Unchanged: 
 Data sizes:     COMMON   BANK0   BANK1   BANK2   BANK3   BANK4   BANK5   BANK6   BANK7   BANK8  BANK10  BANK11  BANK12
      Params:         1       0       0       0       0       0       0       0       0       0       0       0       0
      Locals:         0       3       0       0       0       0       0       0       0       0       0       0       0
      Temps:          2       0       0       0       0       0       0       0       0       0       0       0       0
      Totals:         3       3       0       0       0       0       0       0       0       0       0       0       0
Total ram usage:        6 bytes
 Hardware stack levels used:    1
 Hardware stack levels required when called:    2
 This function calls:
		Nothing
 This function is called by:
		_ui_disp_set_calib
		_lcd_set_com_seg
 This function uses a non-reentrant model


 *************** function _rfid_comm_process_recharge *****************
 Defined at:
		line 126 in file "src/app/rfid_demo.c"
 Parameters:    Size  Location     Type
		None
 Auto vars:     Size  Location     Type
  stpDec          1   79[BANK0 ] PTR struct .
		 -> cardDecBuf(18), 
  stpInc          1   78[BANK0 ] PTR struct .
		 -> cardIncBuf(18), 
  ret             1   77[BANK0 ] unsigned char 
 Return value:  Size  Location     Type
                  1    wreg      unsigned char 
 Registers used:
		wreg, fsr0l, fsr0h, fsr1l, fsr1h, status,2, status,0, pclath, cstack
 Tracked objects:
		On entry : 
		On exit  : 
		Unchanged: 
 Data sizes:     COMMON   BANK0   BANK1   BANK2   BANK3   BANK4   BANK5   BANK6   BANK7   BANK8  BANK10  BANK11  BANK12
      Params:         0       0       0       0       0       0       0       0       0       0       0       0       0
      Locals:         0       3       0       0       0       0       0       0       0       0       0       0       0
      Temps:          0       0       8       0       0       0       0       0       0       0       0       0       0
      Totals:         0       3       8       0       0       0       0       0       0       0       0       0       0
Total ram usage:       11 bytes
 Hardware stack levels used:    1
 Hardware stack levels required when called:    9
 This function calls:
		_crc_append
		_data_api_flash_process
		_m_mem_cpy_len
		_mifare_write
		_picc_authenticate
 This function is called by:
		_rfid_comm_process
 This function uses a non-reentrant model


 *************** function _rfid_comm_process_read_inc *****************
 Defined at:
		line 106 in file "src/app/rfid_demo.c"
 Parameters:    Size  Location     Type
		None
 Auto vars:     Size  Location     Type
  ret             1   67[BANK0 ] unsigned char 
 Return value:  Size  Location     Type
                  1    wreg      unsigned char 
 Registers used:
		wreg, fsr0l, fsr0h, fsr1l, fsr1h, status,2, status,0, pclath, cstack
 Tracked objects:
		On entry : 
		On exit  : 
		Unchanged: 
 Data sizes:     COMMON   BANK0   BANK1   BANK2   BANK3   BANK4   BANK5   BANK6   BANK7   BANK8  BANK10  BANK11  BANK12
      Params:         0       0       0       0       0       0       0       0       0       0       0       0       0
      Locals:         0       1       0       0       0       0       0       0       0       0       0       0       0
      Temps:          0       3       0       0       0       0       0       0       0       0       0       0       0
      Totals:         0       4       0       0       0       0       0       0       0       0       0       0       0
Total ram usage:        4 bytes
 Hardware stack levels used:    1
 Hardware stack levels required when called:    8
 This function calls:
		_crc_verify
		_mifare_read
		_picc_authenticate
 This function is called by:
		_rfid_comm_process
 This function uses a non-reentrant model


 *************** function _rfid_comm_process_read_header *****************
 Defined at:
		line 41 in file "src/app/rfid_demo.c"
 Parameters:    Size  Location     Type
		None
 Auto vars:     Size  Location     Type
  stp             2   78[BANK0 ] PTR struct .
		 -> comBuffer(128), 
  ret             1   77[BANK0 ] unsigned char 
 Return value:  Size  Location     Type
                  1    wreg      unsigned char 
 Registers used:
		wreg, fsr0l, fsr0h, fsr1l, fsr1h, status,2, status,0, pclath, cstack
 Tracked objects:
		On entry : 
		On exit  : 
		Unchanged: 
 Data sizes:     COMMON   BANK0   BANK1   BANK2   BANK3   BANK4   BANK5   BANK6   BANK7   BANK8  BANK10  BANK11  BANK12
      Params:         0       0       0       0       0       0       0       0       0       0       0       0       0
      Locals:         0       3       0       0       0       0       0       0       0       0       0       0       0
      Temps:          0       0       7       0       0       0       0       0       0       0       0       0       0
      Totals:         0       3       7       0       0       0       0       0       0       0       0       0       0
Total ram usage:       10 bytes
 Hardware stack levels used:    1
 Hardware stack levels required when called:    9
 This function calls:
		_crc_append
		_crc_verify
		_create_card_key_b
		_data_api_flash_process
		_m_mem_cpy_len
		_m_mem_set
		_mifare_read
		_mifare_write
		_picc_authenticate
 This function is called by:
		_rfid_comm_process
 This function uses a non-reentrant model


 *************** function _mifare_write *****************
 Defined at:
		line 57 in file "src/nfc/pal/mfrc522_mifare.c"
 Parameters:    Size  Location     Type
  blockAddr       1    wreg     unsigned char 
  buffer          1   73[BANK0 ] PTR unsigned char 
		 -> cardDecBuf(18), cardWriteBuf(18), 
  bufferSize      1   74[BANK0 ] unsigned char 
 Auto vars:     Size  Location     Type
  blockAddr       1    0[BANK1 ] unsigned char 
  cmdBuffer       2    1[BANK1 ] unsigned char [2]
  result          1    3[BANK1 ] enum E5266
 Return value:  Size  Location     Type
                  1    wreg      enum E5491
 Registers used:
		wreg, fsr0l, fsr0h, fsr1l, fsr1h, status,2, status,0, pclath, cstack
 Tracked objects:
		On entry : 
		On exit  : 
		Unchanged: 
 Data sizes:     COMMON   BANK0   BANK1   BANK2   BANK3   BANK4   BANK5   BANK6   BANK7   BANK8  BANK10  BANK11  BANK12
      Params:         0       2       0       0       0       0       0       0       0       0       0       0       0
      Locals:         0       0       4       0       0       0       0       0       0       0       0       0       0
      Temps:          0       2       0       0       0       0       0       0       0       0       0       0       0
      Totals:         0       4       4       0       0       0       0       0       0       0       0       0       0
Total ram usage:        8 bytes
 Hardware stack levels used:    1
 Hardware stack levels required when called:    8
 This function calls:
		_pcd_mifare_transceive
 This function is called by:
		_rfid_comm_process_read_header
		_rfid_comm_process_recharge
 This function uses a non-reentrant model


 *************** function _pcd_mifare_transceive *****************
 Defined at:
		line 127 in file "src/nfc/pal/mfrc522_mifare.c"
 Parameters:    Size  Location     Type
  sendData        2   42[BANK0 ] PTR unsigned char 
		 -> mifare_write@cmdBuffer(2), mifare_two_Step_helper@data(4), mifare_two_Step_helper@cmdBuffer(2), cardDecBuf(18), 
		 -> cardWriteBuf(18), 
  sendLen         1   44[BANK0 ] unsigned char 
  acceptTimeou    1   45[BANK0 ] unsigned char 
 Auto vars:     Size  Location     Type
  cmdBuffer      18   51[BANK0 ] unsigned char [18]
  result          1   72[BANK0 ] enum E5266
  cmdBufferSiz    1   71[BANK0 ] unsigned char 
  validBits       1   70[BANK0 ] unsigned char 
  waitIRq         1   69[BANK0 ] unsigned char 
 Return value:  Size  Location     Type
                  1    wreg      enum E5266
 Registers used:
		wreg, fsr0l, fsr0h, fsr1l, fsr1h, status,2, status,0, pclath, cstack
 Tracked objects:
		On entry : 
		On exit  : 
		Unchanged: 
 Data sizes:     COMMON   BANK0   BANK1   BANK2   BANK3   BANK4   BANK5   BANK6   BANK7   BANK8  BANK10  BANK11  BANK12
      Params:         0       4       0       0       0       0       0       0       0       0       0       0       0
      Locals:         0      22       0       0       0       0       0       0       0       0       0       0       0
      Temps:          0       5       0       0       0       0       0       0       0       0       0       0       0
      Totals:         0      31       0       0       0       0       0       0       0       0       0       0       0
Total ram usage:       31 bytes
 Hardware stack levels used:    1
 Hardware stack levels required when called:    7
 This function calls:
		_m_mem_cpy_len
		_mfrc522_hal_calculate_crc
		_pcd_comm_with_picc
 This function is called by:
		_mifare_write
		_mifare_two_Step_helper
 This function uses a non-reentrant model


 *************** function _data_api_flash_process *****************
 Defined at:
		line 244 in file "src/app/appdata.c"
 Parameters:    Size  Location     Type
		None
 Auto vars:     Size  Location     Type
		None
 Return value:  Size  Location     Type
                  1    wreg      unsigned char 
 Registers used:
		wreg, fsr0l, fsr0h, fsr1l, fsr1h, status,2, status,0, pclath, cstack
 Tracked objects:
		On entry : 
		On exit  : 
		Unchanged: 
 Data sizes:     COMMON   BANK0   BANK1   BANK2   BANK3   BANK4   BANK5   BANK6   BANK7   BANK8  BANK10  BANK11  BANK12
      Params:         0       0       0       0       0       0       0       0       0       0       0       0       0
      Locals:         0       0       0       0       0       0       0       0       0       0       0       0       0
      Temps:          0       1       0       0       0       0       0       0       0       0       0       0       0
      Totals:         0       1       0       0       0       0       0       0       0       0       0       0       0
Total ram usage:        1 bytes
 Hardware stack levels used:    1
 Hardware stack levels required when called:    5
 This function calls:
		_data_api_calibration_table_data_save
		_data_api_rt_data_save
 This function is called by:
		_rfid_comm_process_read_header
		_rfid_comm_process_recharge
		_main
 This function uses a non-reentrant model


 *************** function _data_api_rt_data_save *****************
 Defined at:
		line 159 in file "src/app/appdata.c"
 Parameters:    Size  Location     Type
		None
 Auto vars:     Size  Location     Type
  stp             2   22[BANK0 ] PTR struct .
		 -> comBuffer(128), 
 Return value:  Size  Location     Type
                  1    wreg      unsigned char 
 Registers used:
		wreg, fsr1l, fsr1h, status,2, status,0, pclath, cstack
 Tracked objects:
		On entry : 
		On exit  : 
		Unchanged: 
 Data sizes:     COMMON   BANK0   BANK1   BANK2   BANK3   BANK4   BANK5   BANK6   BANK7   BANK8  BANK10  BANK11  BANK12
      Params:         0       0       0       0       0       0       0       0       0       0       0       0       0
      Locals:         0       2       0       0       0       0       0       0       0       0       0       0       0
      Temps:          0       3       0       0       0       0       0       0       0       0       0       0       0
      Totals:         0       5       0       0       0       0       0       0       0       0       0       0       0
Total ram usage:        5 bytes
 Hardware stack levels used:    1
 Hardware stack levels required when called:    4
 This function calls:
		_crc_append
		_data_api_system_data_get
		_data_api_write_eeprom
		_m_mem_cpy_len
 This function is called by:
		_ui_key_process_down
		_data_api_flash_process
 This function uses a non-reentrant model


 *************** function _create_card_key_b *****************
 Defined at:
		line 32 in file "src/app/rfid_demo.c"
 Parameters:    Size  Location     Type
  keyb            1    wreg     PTR unsigned char 
		 -> userKeyB(6), 
  uid             1    3[COMMON] PTR unsigned char 
		 -> cardUidBlockBuf(18), 
  cckey           1    4[COMMON] PTR unsigned char 
		 -> mainSystemData(72), 
 Auto vars:     Size  Location     Type
  keyb            1    6[COMMON] PTR unsigned char 
		 -> userKeyB(6), 
  i               1    7[COMMON] unsigned char 
 Return value:  Size  Location     Type
                  1    wreg      void 
 Registers used:
		wreg, fsr0l, fsr0h, fsr1l, fsr1h, status,2, status,0
 Tracked objects:
		On entry : 
		On exit  : 
		Unchanged: 
 Data sizes:     COMMON   BANK0   BANK1   BANK2   BANK3   BANK4   BANK5   BANK6   BANK7   BANK8  BANK10  BANK11  BANK12
      Params:         2       0       0       0       0       0       0       0       0       0       0       0       0
      Locals:         2       0       0       0       0       0       0       0       0       0       0       0       0
      Temps:          1       0       0       0       0       0       0       0       0       0       0       0       0
      Totals:         5       0       0       0       0       0       0       0       0       0       0       0       0
Total ram usage:        5 bytes
 Hardware stack levels used:    1
 Hardware stack levels required when called:    2
 This function calls:
		Nothing
 This function is called by:
		_rfid_comm_process_read_header
 This function uses a non-reentrant model


 *************** function _rfid_comm_process_read_dec *****************
 Defined at:
		line 116 in file "src/app/rfid_demo.c"
 Parameters:    Size  Location     Type
		None
 Auto vars:     Size  Location     Type
  ret             1   67[BANK0 ] unsigned char 
 Return value:  Size  Location     Type
                  1    wreg      unsigned char 
 Registers used:
		wreg, fsr0l, fsr0h, fsr1l, fsr1h, status,2, status,0, pclath, cstack
 Tracked objects:
		On entry : 
		On exit  : 
		Unchanged: 
 Data sizes:     COMMON   BANK0   BANK1   BANK2   BANK3   BANK4   BANK5   BANK6   BANK7   BANK8  BANK10  BANK11  BANK12
      Params:         0       0       0       0       0       0       0       0       0       0       0       0       0
      Locals:         0       1       0       0       0       0       0       0       0       0       0       0       0
      Temps:          0       3       0       0       0       0       0       0       0       0       0       0       0
      Totals:         0       4       0       0       0       0       0       0       0       0       0       0       0
Total ram usage:        4 bytes
 Hardware stack levels used:    1
 Hardware stack levels required when called:    8
 This function calls:
		_crc_verify
		_mifare_read
		_picc_authenticate
 This function is called by:
		_rfid_comm_process
 This function uses a non-reentrant model


 *************** function _picc_authenticate *****************
 Defined at:
		line 288 in file "src/nfc/pal/mfrc522_picc.c"
 Parameters:    Size  Location     Type
  command         1    wreg     unsigned char 
  blockAddr       1   42[BANK0 ] unsigned char 
  key             2   43[BANK0 ] PTR struct .
		 -> userKeyB(6), defaultKeyA(6), 
  uid             1   45[BANK0 ] PTR struct __PICC_UID
		 -> PiccUid(12), 
 Auto vars:     Size  Location     Type
  command         1   61[BANK0 ] unsigned char 
  sendData       12   49[BANK0 ] unsigned char [12]
  i               1   63[BANK0 ] unsigned char 
  waitIRQ         1   62[BANK0 ] unsigned char 
 Return value:  Size  Location     Type
                  1    wreg      enum E5491
 Registers used:
		wreg, fsr0l, fsr0h, fsr1l, fsr1h, status,2, status,0, pclath, cstack
 Tracked objects:
		On entry : 
		On exit  : 
		Unchanged: 
 Data sizes:     COMMON   BANK0   BANK1   BANK2   BANK3   BANK4   BANK5   BANK6   BANK7   BANK8  BANK10  BANK11  BANK12
      Params:         0       4       0       0       0       0       0       0       0       0       0       0       0
      Locals:         0      15       0       0       0       0       0       0       0       0       0       0       0
      Temps:          0       3       0       0       0       0       0       0       0       0       0       0       0
      Totals:         0      22       0       0       0       0       0       0       0       0       0       0       0
Total ram usage:       22 bytes
 Hardware stack levels used:    1
 Hardware stack levels required when called:    7
 This function calls:
		_pcd_comm_with_picc
 This function is called by:
		_rfid_comm_process_read_header
		_rfid_comm_process_read_inc
		_rfid_comm_process_read_dec
		_rfid_comm_process_recharge
 This function uses a non-reentrant model


 *************** function _mifare_read *****************
 Defined at:
		line 35 in file "src/nfc/pal/mfrc522_mifare.c"
 Parameters:    Size  Location     Type
  blockAddr       1    wreg     unsigned char 
  buffer          1   42[BANK0 ] PTR unsigned char 
		 -> cardDecBuf(18), cardIncBuf(18), cardWriteBuf(18), cardUidBlockBuf(18), 
  bufferSize      1   43[BANK0 ] PTR unsigned char 
		 -> rdLen(1), __t8(1), 
 Auto vars:     Size  Location     Type
  blockAddr       1   47[BANK0 ] unsigned char 
  result          1   48[BANK0 ] enum E5266
 Return value:  Size  Location     Type
                  1    wreg      enum E5491
 Registers used:
		wreg, fsr0l, fsr0h, fsr1l, fsr1h, status,2, status,0, pclath, cstack
 Tracked objects:
		On entry : 
		On exit  : 
		Unchanged: 
 Data sizes:     COMMON   BANK0   BANK1   BANK2   BANK3   BANK4   BANK5   BANK6   BANK7   BANK8  BANK10  BANK11  BANK12
      Params:         0       2       0       0       0       0       0       0       0       0       0       0       0
      Locals:         0       2       0       0       0       0       0       0       0       0       0       0       0
      Temps:          0       3       0       0       0       0       0       0       0       0       0       0       0
      Totals:         0       7       0       0       0       0       0       0       0       0       0       0       0
Total ram usage:        7 bytes
 Hardware stack levels used:    1
 Hardware stack levels required when called:    7
 This function calls:
		_mfrc522_hal_calculate_crc
		_pcd_comm_with_picc
 This function is called by:
		_rfid_comm_process_read_header
		_rfid_comm_process_read_inc
		_rfid_comm_process_read_dec
 This function uses a non-reentrant model


 *************** function _picc_stop_cryptol *****************
 Defined at:
		line 308 in file "src/nfc/pal/mfrc522_picc.c"
 Parameters:    Size  Location     Type
		None
 Auto vars:     Size  Location     Type
		None
 Return value:  Size  Location     Type
                  1    wreg      void 
 Registers used:
		wreg, status,2, status,0, pclath, cstack
 Tracked objects:
		On entry : 
		On exit  : 
		Unchanged: 
 Data sizes:     COMMON   BANK0   BANK1   BANK2   BANK3   BANK4   BANK5   BANK6   BANK7   BANK8  BANK10  BANK11  BANK12
      Params:         0       0       0       0       0       0       0       0       0       0       0       0       0
      Locals:         0       0       0       0       0       0       0       0       0       0       0       0       0
      Temps:          0       1       0       0       0       0       0       0       0       0       0       0       0
      Totals:         0       1       0       0       0       0       0       0       0       0       0       0       0
Total ram usage:        1 bytes
 Hardware stack levels used:    1
 Hardware stack levels required when called:    5
 This function calls:
		_mfrc522_bal_clr_bit_reg
 This function is called by:
		_rfid_comm_process
 This function uses a non-reentrant model


 *************** function _picc_select *****************
 Defined at:
		line 126 in file "src/nfc/pal/mfrc522_picc.c"
 Parameters:    Size  Location     Type
  uid             1    wreg     PTR struct __PICC_UID
		 -> PiccUid(12), 
  validBits       1   42[BANK0 ] unsigned char 
 Auto vars:     Size  Location     Type
  uid             1   30[BANK1 ] PTR struct __PICC_UID
		 -> PiccUid(12), 
  collisionPos    1   23[BANK1 ] unsigned char 
  valueOfCollR    1   13[BANK1 ] unsigned char 
  maxBytes        1   12[BANK1 ] unsigned char 
  bytesToCopy     1   27[BANK1 ] unsigned char 
  buffer          9   14[BANK1 ] unsigned char [9]
  currentLevel    1   35[BANK1 ] unsigned char 
  index           1   34[BANK1 ] unsigned char 
  count           1   33[BANK1 ] unsigned char 
  result          1   32[BANK1 ] enum E5266
  txLastBits      1   31[BANK1 ] unsigned char 
  responseBuff    1   29[BANK1 ] PTR unsigned char 
		 -> picc_select@buffer(9), 
  responseLeng    1   28[BANK1 ] unsigned char 
  uidIndex        1   26[BANK1 ] unsigned char 
  cascadeLevel    1   25[BANK1 ] unsigned char 
  useCascadeTa    1   24[BANK1 ] unsigned char 
  rxAlign         1   11[BANK1 ] unsigned char 
  bufferUsed      1    8[BANK1 ] unsigned char 
  selectDone      1    7[BANK1 ] unsigned char 
  uidComplete     1    6[BANK1 ] unsigned char 
 Return value:  Size  Location     Type
                  1    wreg      enum E5491
 Registers used:
		wreg, fsr0l, fsr0h, fsr1l, fsr1h, status,2, status,0, pclath, cstack
 Tracked objects:
		On entry : 
		On exit  : 
		Unchanged: 
 Data sizes:     COMMON   BANK0   BANK1   BANK2   BANK3   BANK4   BANK5   BANK6   BANK7   BANK8  BANK10  BANK11  BANK12
      Params:         0       1       0       0       0       0       0       0       0       0       0       0       0
      Locals:         0       0      36       0       0       0       0       0       0       0       0       0       0
      Temps:          0       6       0       0       0       0       0       0       0       0       0       0       0
      Totals:         0       7      36       0       0       0       0       0       0       0       0       0       0
Total ram usage:       43 bytes
 Hardware stack levels used:    1
 Hardware stack levels required when called:    7
 This function calls:
		___awdiv
		___bmul
		_mfrc522_bal_clr_bit_reg
		_mfrc522_bal_read_reg
		_mfrc522_bal_write_reg
		_mfrc522_hal_calculate_crc
		_pcd_comm_with_picc
 This function is called by:
		_rfid_comm_process
 This function uses a non-reentrant model


 *************** function ___bmul *****************
 Defined at:
		line 4 in file "C:\Program Files (x86)\Microchip\xc8\v1.42\sources\common\Umul8.c"
 Parameters:    Size  Location     Type
  multiplier      1    wreg     unsigned char 
  multiplicand    1    4[BANK0 ] unsigned char 
 Auto vars:     Size  Location     Type
  multiplier      1    7[BANK0 ] unsigned char 
  product         1    6[BANK0 ] unsigned char 
 Return value:  Size  Location     Type
                  1    wreg      unsigned char 
 Registers used:
		wreg, status,2, status,0
 Tracked objects:
		On entry : 
		On exit  : 
		Unchanged: 
 Data sizes:     COMMON   BANK0   BANK1   BANK2   BANK3   BANK4   BANK5   BANK6   BANK7   BANK8  BANK10  BANK11  BANK12
      Params:         0       1       0       0       0       0       0       0       0       0       0       0       0
      Locals:         0       2       0       0       0       0       0       0       0       0       0       0       0
      Temps:          0       1       0       0       0       0       0       0       0       0       0       0       0
      Totals:         0       4       0       0       0       0       0       0       0       0       0       0       0
Total ram usage:        4 bytes
 Hardware stack levels used:    1
 Hardware stack levels required when called:    2
 This function calls:
		Nothing
 This function is called by:
		_lcd_set_com_seg
		_picc_select
 This function uses a non-reentrant model


 *************** function ___awdiv *****************
 Defined at:
		line 6 in file "C:\Program Files (x86)\Microchip\xc8\v1.42\sources\common\awdiv.c"
 Parameters:    Size  Location     Type
  divisor         2    3[COMMON] int 
  dividend        2    5[COMMON] int 
 Auto vars:     Size  Location     Type
  quotient        2    2[BANK0 ] int 
  sign            1    1[BANK0 ] unsigned char 
  counter         1    0[BANK0 ] unsigned char 
 Return value:  Size  Location     Type
                  2    3[COMMON] int 
 Registers used:
		wreg, status,2, status,0
 Tracked objects:
		On entry : 
		On exit  : 
		Unchanged: 
 Data sizes:     COMMON   BANK0   BANK1   BANK2   BANK3   BANK4   BANK5   BANK6   BANK7   BANK8  BANK10  BANK11  BANK12
      Params:         4       0       0       0       0       0       0       0       0       0       0       0       0
      Locals:         0       4       0       0       0       0       0       0       0       0       0       0       0
      Temps:          1       0       0       0       0       0       0       0       0       0       0       0       0
      Totals:         5       4       0       0       0       0       0       0       0       0       0       0       0
Total ram usage:        9 bytes
 Hardware stack levels used:    1
 Hardware stack levels required when called:    2
 This function calls:
		Nothing
 This function is called by:
		_ui_disp_set_calib
		_ui_key_process_enter
		_ui_key_process_cancel
		_ui_key_set_process
		_lcd_set_com_seg
		_picc_select
 This function uses a non-reentrant model


 *************** function _picc_halt_a *****************
 Defined at:
		line 272 in file "src/nfc/pal/mfrc522_picc.c"
 Parameters:    Size  Location     Type
		None
 Auto vars:     Size  Location     Type
  buffer          4   45[BANK0 ] unsigned char [4]
  result          1   49[BANK0 ] enum E5266
 Return value:  Size  Location     Type
                  1    wreg      enum E5491
 Registers used:
		wreg, fsr0l, fsr0h, fsr1l, fsr1h, status,2, status,0, pclath, cstack
 Tracked objects:
		On entry : 
		On exit  : 
		Unchanged: 
 Data sizes:     COMMON   BANK0   BANK1   BANK2   BANK3   BANK4   BANK5   BANK6   BANK7   BANK8  BANK10  BANK11  BANK12
      Params:         0       0       0       0       0       0       0       0       0       0       0       0       0
      Locals:         0       5       0       0       0       0       0       0       0       0       0       0       0
      Temps:          0       3       0       0       0       0       0       0       0       0       0       0       0
      Totals:         0       8       0       0       0       0       0       0       0       0       0       0       0
Total ram usage:        8 bytes
 Hardware stack levels used:    1
 Hardware stack levels required when called:    7
 This function calls:
		_mfrc522_hal_calculate_crc
		_pcd_comm_with_picc
 This function is called by:
		_rfid_comm_process
 This function uses a non-reentrant model


 *************** function _mfapi_is_new_card_present *****************
 Defined at:
		line 76 in file "src/nfc/apl/mfrc522_apl.c"
 Parameters:    Size  Location     Type
		None
 Auto vars:     Size  Location     Type
  bufferATQA      2   56[BANK0 ] unsigned char [2]
  bufferSize      1   59[BANK0 ] unsigned char 
  result          1   58[BANK0 ] enum E5266
  cmd             1   55[BANK0 ] unsigned char 
 Return value:  Size  Location     Type
                  1    wreg      unsigned char 
 Registers used:
		wreg, fsr0l, fsr0h, fsr1l, fsr1h, status,2, status,0, pclath, cstack
 Tracked objects:
		On entry : 
		On exit  : 
		Unchanged: 
 Data sizes:     COMMON   BANK0   BANK1   BANK2   BANK3   BANK4   BANK5   BANK6   BANK7   BANK8  BANK10  BANK11  BANK12
      Params:         0       0       0       0       0       0       0       0       0       0       0       0       0
      Locals:         0       5       0       0       0       0       0       0       0       0       0       0       0
      Temps:          0       3       0       0       0       0       0       0       0       0       0       0       0
      Totals:         0       8       0       0       0       0       0       0       0       0       0       0       0
Total ram usage:        8 bytes
 Hardware stack levels used:    1
 Hardware stack levels required when called:    8
 This function calls:
		_m_mem_set
		_picc_req_a_or_wakeup_a
 This function is called by:
		_rfid_comm_process
 This function uses a non-reentrant model


 *************** function _picc_req_a_or_wakeup_a *****************
 Defined at:
		line 108 in file "src/nfc/pal/mfrc522_picc.c"
 Parameters:    Size  Location     Type
  cmd             1    wreg     unsigned char 
  bufferATQA      1   42[BANK0 ] PTR unsigned char 
		 -> mfapi_is_new_card_present@bufferATQA(2), 
  bufferSize      1   43[BANK0 ] PTR unsigned char 
		 -> mfapi_is_new_card_present@bufferSize(1), 
 Auto vars:     Size  Location     Type
  cmd             1   48[BANK0 ] unsigned char 
  validBits       1   51[BANK0 ] unsigned char 
  status          1   50[BANK0 ] enum E5266
  __cmd           1   49[BANK0 ] unsigned char 
 Return value:  Size  Location     Type
                  1    wreg      enum E5266
 Registers used:
		wreg, fsr0l, fsr0h, fsr1l, fsr1h, status,2, status,0, pclath, cstack
 Tracked objects:
		On entry : 
		On exit  : 
		Unchanged: 
 Data sizes:     COMMON   BANK0   BANK1   BANK2   BANK3   BANK4   BANK5   BANK6   BANK7   BANK8  BANK10  BANK11  BANK12
      Params:         0       2       0       0       0       0       0       0       0       0       0       0       0
      Locals:         0       4       0       0       0       0       0       0       0       0       0       0       0
      Temps:          0       4       0       0       0       0       0       0       0       0       0       0       0
      Totals:         0      10       0       0       0       0       0       0       0       0       0       0       0
Total ram usage:       10 bytes
 Hardware stack levels used:    1
 Hardware stack levels required when called:    7
 This function calls:
		_mfrc522_bal_clr_bit_reg
		_pcd_comm_with_picc
 This function is called by:
		_mfapi_is_new_card_present
 This function uses a non-reentrant model


 *************** function _pcd_comm_with_picc *****************
 Defined at:
		line 35 in file "src/nfc/pal/mfrc522_picc.c"
 Parameters:    Size  Location     Type
  cmd             1    wreg     unsigned char 
  waitIRQ         1   17[BANK0 ] unsigned char 
  sbuf            2   18[BANK0 ] PTR unsigned char 
		 -> pcd_mifare_transceive@cmdBuffer(18), picc_authenticate@sendData(12), picc_halt_a@buffer(4), picc_select@buffer(9), 
		 -> picc_req_a_or_wakeup_a@__cmd(1), cardDecBuf(18), cardIncBuf(18), cardWriteBuf(18), 
		 -> cardUidBlockBuf(18), 
  slen            1   20[BANK0 ] unsigned char 
  rbuf            2   21[BANK0 ] PTR unsigned char 
		 -> pcd_mifare_transceive@cmdBuffer(18), picc_select@buffer(9), mfapi_is_new_card_present@bufferATQA(2), cardDecBuf(18), 
		 -> cardIncBuf(18), cardWriteBuf(18), cardUidBlockBuf(18), NULL(0), 
  rlen            1   23[BANK0 ] PTR unsigned char 
		 -> pcd_mifare_transceive@cmdBufferSize(1), picc_select@responseLength(1), mfapi_is_new_card_present@bufferSize(1), rdLen(1), 
		 -> __t8(1), NULL(0), 
  validBits       1   24[BANK0 ] PTR unsigned char 
		 -> pcd_mifare_transceive@validBits(1), picc_select@txLastBits(1), picc_req_a_or_wakeup_a@validBits(1), NULL(0), 
  rxAlign         1   25[BANK0 ] unsigned char 
  checkCRC        1   26[BANK0 ] unsigned char 
 Auto vars:     Size  Location     Type
  cmd             1   33[BANK0 ] unsigned char 
  controlBuffe    2   34[BANK0 ] unsigned char [2]
  status          1   37[BANK0 ] enum E5266
  i               2   38[BANK0 ] unsigned int 
  tmp8            1   41[BANK0 ] unsigned char 
  _validBits      1   40[BANK0 ] unsigned char 
  errorRegValu    1   36[BANK0 ] unsigned char 
  bitFraming      1   30[BANK0 ] unsigned char 
  txLastBits      1   29[BANK0 ] unsigned char 
 Return value:  Size  Location     Type
                  1    wreg      enum E5266
 Registers used:
		wreg, fsr0l, fsr0h, fsr1l, fsr1h, status,2, status,0, pclath, cstack
 Tracked objects:
		On entry : 
		On exit  : 
		Unchanged: 
 Data sizes:     COMMON   BANK0   BANK1   BANK2   BANK3   BANK4   BANK5   BANK6   BANK7   BANK8  BANK10  BANK11  BANK12
      Params:         0      10       0       0       0       0       0       0       0       0       0       0       0
      Locals:         0      13       0       0       0       0       0       0       0       0       0       0       0
      Temps:          0       2       0       0       0       0       0       0       0       0       0       0       0
      Totals:         0      25       0       0       0       0       0       0       0       0       0       0       0
Total ram usage:       25 bytes
 Hardware stack levels used:    1
 Hardware stack levels required when called:    6
 This function calls:
		_mfrc522_bal_read_fifo_len_ex
		_mfrc522_bal_read_reg
		_mfrc522_bal_set_bit_reg
		_mfrc522_bal_write_reg
		_mfrc522_bal_write_reg_len
		_mfrc522_hal_calculate_crc
 This function is called by:
		_picc_req_a_or_wakeup_a
		_picc_select
		_picc_halt_a
		_picc_authenticate
		_mifare_read
		_pcd_mifare_transceive
 This function uses a non-reentrant model


 *************** function _mfrc522_hal_calculate_crc *****************
 Defined at:
		line 68 in file "src/nfc/hal/mfrc522_hal.c"
 Parameters:    Size  Location     Type
  data            2    6[BANK0 ] PTR unsigned char 
		 -> pcd_mifare_transceive@cmdBuffer(18), picc_halt_a@buffer(4), picc_select@buffer(9), mfapi_is_new_card_present@bufferATQA(2), 
		 -> cardDecBuf(18), cardIncBuf(18), cardWriteBuf(18), cardUidBlockBuf(18), 
		 -> NULL(0), 
  length          1    8[BANK0 ] unsigned char 
  result          2    9[BANK0 ] PTR unsigned char 
		 -> pcd_mifare_transceive@cmdBuffer(18), picc_halt_a@buffer(4), picc_select@buffer(9), pcd_comm_with_picc@controlBuffer(2), 
		 -> cardDecBuf(18), cardIncBuf(18), cardWriteBuf(18), cardUidBlockBuf(18), 
 Auto vars:     Size  Location     Type
  i               2   15[BANK0 ] unsigned int 
  t8              1   14[BANK0 ] unsigned char 
 Return value:  Size  Location     Type
                  1    wreg      enum E5266
 Registers used:
		wreg, fsr1l, fsr1h, status,2, status,0, pclath, cstack
 Tracked objects:
		On entry : 
		On exit  : 
		Unchanged: 
 Data sizes:     COMMON   BANK0   BANK1   BANK2   BANK3   BANK4   BANK5   BANK6   BANK7   BANK8  BANK10  BANK11  BANK12
      Params:         0       5       0       0       0       0       0       0       0       0       0       0       0
      Locals:         0       3       0       0       0       0       0       0       0       0       0       0       0
      Temps:          0       3       0       0       0       0       0       0       0       0       0       0       0
      Totals:         0      11       0       0       0       0       0       0       0       0       0       0       0
Total ram usage:       11 bytes
 Hardware stack levels used:    1
 Hardware stack levels required when called:    5
 This function calls:
		_mfrc522_bal_read_reg
		_mfrc522_bal_set_bit_reg
		_mfrc522_bal_write_reg
		_mfrc522_bal_write_reg_len
 This function is called by:
		_pcd_comm_with_picc
		_picc_select
		_picc_halt_a
		_mifare_read
		_pcd_mifare_transceive
 This function uses a non-reentrant model


 *************** function _mfrc522_bal_write_reg_len *****************
 Defined at:
		line 59 in file "src/nfc/bal/mfrc522_bal.c"
 Parameters:    Size  Location     Type
  reg             1    wreg     unsigned char 
  buf             2    0[BANK0 ] PTR unsigned char 
		 -> pcd_mifare_transceive@cmdBuffer(18), picc_authenticate@sendData(12), picc_halt_a@buffer(4), picc_select@buffer(9), 
		 -> picc_req_a_or_wakeup_a@__cmd(1), mfapi_is_new_card_present@bufferATQA(2), cardDecBuf(18), cardIncBuf(18), 
		 -> cardWriteBuf(18), cardUidBlockBuf(18), NULL(0), 
  len             1    2[BANK0 ] unsigned char 
 Auto vars:     Size  Location     Type
  reg             1    3[BANK0 ] unsigned char 
  i               1    4[BANK0 ] unsigned char 
 Return value:  Size  Location     Type
                  1    wreg      void 
 Registers used:
		wreg, fsr1l, fsr1h, status,2, status,0, pclath, cstack
 Tracked objects:
		On entry : 
		On exit  : 
		Unchanged: 
 Data sizes:     COMMON   BANK0   BANK1   BANK2   BANK3   BANK4   BANK5   BANK6   BANK7   BANK8  BANK10  BANK11  BANK12
      Params:         0       3       0       0       0       0       0       0       0       0       0       0       0
      Locals:         0       2       0       0       0       0       0       0       0       0       0       0       0
      Temps:          1       0       0       0       0       0       0       0       0       0       0       0       0
      Totals:         1       5       0       0       0       0       0       0       0       0       0       0       0
Total ram usage:        6 bytes
 Hardware stack levels used:    1
 Hardware stack levels required when called:    3
 This function calls:
		_mfrc522_bal_write_read_via_spi
 This function is called by:
		_mfrc522_hal_calculate_crc
		_pcd_comm_with_picc
 This function uses a non-reentrant model


 *************** function _mfrc522_bal_read_fifo_len_ex *****************
 Defined at:
		line 117 in file "src/nfc/bal/mfrc522_bal.c"
 Parameters:    Size  Location     Type
  reg             1    wreg     unsigned char 
  buf             2    0[BANK0 ] PTR unsigned char 
		 -> pcd_mifare_transceive@cmdBuffer(18), picc_select@buffer(9), mfapi_is_new_card_present@bufferATQA(2), cardDecBuf(18), 
		 -> cardIncBuf(18), cardWriteBuf(18), cardUidBlockBuf(18), NULL(0), 
  len             1    2[BANK0 ] unsigned char 
  rx_align        1    3[BANK0 ] unsigned char 
 Auto vars:     Size  Location     Type
  reg             1    4[BANK0 ] unsigned char 
  i               1    6[BANK0 ] unsigned char 
  adr             1    5[BANK0 ] unsigned char 
 Return value:  Size  Location     Type
                  1    wreg      void 
 Registers used:
		wreg, fsr0l, fsr0h, fsr1l, fsr1h, status,2, status,0, pclath, cstack
 Tracked objects:
		On entry : 
		On exit  : 
		Unchanged: 
 Data sizes:     COMMON   BANK0   BANK1   BANK2   BANK3   BANK4   BANK5   BANK6   BANK7   BANK8  BANK10  BANK11  BANK12
      Params:         0       4       0       0       0       0       0       0       0       0       0       0       0
      Locals:         0       3       0       0       0       0       0       0       0       0       0       0       0
      Temps:          1       0       0       0       0       0       0       0       0       0       0       0       0
      Totals:         1       7       0       0       0       0       0       0       0       0       0       0       0
Total ram usage:        8 bytes
 Hardware stack levels used:    1
 Hardware stack levels required when called:    3
 This function calls:
		_mfrc522_bal_write_read_via_spi
 This function is called by:
		_pcd_comm_with_picc
 This function uses a non-reentrant model


 *************** function _m_mem_set *****************
 Defined at:
		line 32 in file "src/depend/m_string.c"
 Parameters:    Size  Location     Type
  buf             2    3[COMMON] PTR unsigned char 
		 -> pLCD(24), PiccUid(12), comBuffer(128), flashOpStr(21), 
		 -> lcdBuf(9), 
  x               1    5[COMMON] unsigned char 
  len             1    6[COMMON] unsigned char 
 Auto vars:     Size  Location     Type
		None
 Return value:  Size  Location     Type
                  1    wreg      void 
 Registers used:
		wreg, fsr1l, fsr1h, status,2, status,0
 Tracked objects:
		On entry : 
		On exit  : 
		Unchanged: 
 Data sizes:     COMMON   BANK0   BANK1   BANK2   BANK3   BANK4   BANK5   BANK6   BANK7   BANK8  BANK10  BANK11  BANK12
      Params:         4       0       0       0       0       0       0       0       0       0       0       0       0
      Locals:         0       0       0       0       0       0       0       0       0       0       0       0       0
      Temps:          0       0       0       0       0       0       0       0       0       0       0       0       0
      Totals:         4       0       0       0       0       0       0       0       0       0       0       0       0
Total ram usage:        4 bytes
 Hardware stack levels used:    1
 Hardware stack levels required when called:    2
 This function calls:
		Nothing
 This function is called by:
		_ui_disp_str_num
		_ui_disp_str_num_ex
		_ui_disp_flow
		_ui_disp_totale_v
		_ui_disp_transfer_money
		_ui_disp_balance_and_volume
		_ui_disp_set_line
		_ui_disp_set_price
		_ui_disp_set_calib
		_ui_key_process_down
		_rfid_comm_process_read_header
		_lcd_clear_buffer
		_mfapi_is_new_card_present
 This function uses a non-reentrant model


 *************** function _key_scan_call *****************
 Defined at:
		line 7 in file "src/driver/key.c"
 Parameters:    Size  Location     Type
		None
 Auto vars:     Size  Location     Type
		None
 Return value:  Size  Location     Type
                  1    wreg      void 
 Registers used:
		wreg, status,2, status,0, pclath, cstack
 Tracked objects:
		On entry : 
		On exit  : 
		Unchanged: 
 Data sizes:     COMMON   BANK0   BANK1   BANK2   BANK3   BANK4   BANK5   BANK6   BANK7   BANK8  BANK10  BANK11  BANK12
      Params:         0       0       0       0       0       0       0       0       0       0       0       0       0
      Locals:         0       0       0       0       0       0       0       0       0       0       0       0       0
      Temps:          1       0       0       0       0       0       0       0       0       0       0       0       0
      Totals:         1       0       0       0       0       0       0       0       0       0       0       0       0
Total ram usage:        1 bytes
 Hardware stack levels used:    1
 Hardware stack levels required when called:    3
 This function calls:
		_delay
 This function is called by:
		_ui_key_waite_up
		_ui_key_waite_up_ex
		_key_process_up_down_variable_speed_ex
		_ui_key_process
		_rfid_comm_process
 This function uses a non-reentrant model


 *************** function _in_app_vavle_on *****************
 Defined at:
		line 43 in file "src/app/flow.c"
 Parameters:    Size  Location     Type
  op              1    wreg     enum E5863
 Auto vars:     Size  Location     Type
  op              1    5[COMMON] enum E5863
 Return value:  Size  Location     Type
                  1    wreg      void 
 Registers used:
		wreg, status,2, status,0, pclath, cstack
 Tracked objects:
		On entry : 
		On exit  : 
		Unchanged: 
 Data sizes:     COMMON   BANK0   BANK1   BANK2   BANK3   BANK4   BANK5   BANK6   BANK7   BANK8  BANK10  BANK11  BANK12
      Params:         0       0       0       0       0       0       0       0       0       0       0       0       0
      Locals:         1       0       0       0       0       0       0       0       0       0       0       0       0
      Temps:          1       0       0       0       0       0       0       0       0       0       0       0       0
      Totals:         2       0       0       0       0       0       0       0       0       0       0       0       0
Total ram usage:        2 bytes
 Hardware stack levels used:    1
 Hardware stack levels required when called:    3
 This function calls:
		_valve_on
 This function is called by:
		_rfid_comm_process
		_main
 This function uses a non-reentrant model


 *************** function _valve_on *****************
 Defined at:
		line 12 in file "src/driver/other-gpio.c"
 Parameters:    Size  Location     Type
		None
 Auto vars:     Size  Location     Type
		None
 Return value:  Size  Location     Type
                  1    wreg      void 
 Registers used:
		wreg, status,2
 Tracked objects:
		On entry : 
		On exit  : 
		Unchanged: 
 Data sizes:     COMMON   BANK0   BANK1   BANK2   BANK3   BANK4   BANK5   BANK6   BANK7   BANK8  BANK10  BANK11  BANK12
      Params:         0       0       0       0       0       0       0       0       0       0       0       0       0
      Locals:         0       0       0       0       0       0       0       0       0       0       0       0       0
      Temps:          1       0       0       0       0       0       0       0       0       0       0       0       0
      Totals:         1       0       0       0       0       0       0       0       0       0       0       0       0
Total ram usage:        1 bytes
 Hardware stack levels used:    1
 Hardware stack levels required when called:    2
 This function calls:
		Nothing
 This function is called by:
		_in_app_vavle_on
 This function uses a non-reentrant model


 *************** function _my_uart1_received_ready *****************
 Defined at:
		line 96 in file "mcc_generated_files/eusart1.c"
 Parameters:    Size  Location     Type
		None
 Auto vars:     Size  Location     Type
		None
 Return value:  Size  Location     Type
                  1    wreg      void 
 Registers used:
		status,2
 Tracked objects:
		On entry : 
		On exit  : 
		Unchanged: 
 Data sizes:     COMMON   BANK0   BANK1   BANK2   BANK3   BANK4   BANK5   BANK6   BANK7   BANK8  BANK10  BANK11  BANK12
      Params:         0       0       0       0       0       0       0       0       0       0       0       0       0
      Locals:         0       0       0       0       0       0       0       0       0       0       0       0       0
      Temps:          0       0       0       0       0       0       0       0       0       0       0       0       0
      Totals:         0       0       0       0       0       0       0       0       0       0       0       0       0
Total ram usage:        0 bytes
 Hardware stack levels used:    1
 Hardware stack levels required when called:    2
 This function calls:
		Nothing
 This function is called by:
		_main
 This function uses a non-reentrant model


 *************** function _modbus_response_process *****************
 Defined at:
		line 237 in file "src/api/modbus.c"
 Parameters:    Size  Location     Type
  rbuf            1    wreg     PTR unsigned char 
		 -> uart1Buffer(80), 
  rlen            2   46[BANK0 ] unsigned int 
 Auto vars:     Size  Location     Type
  rbuf            1   51[BANK0 ] PTR unsigned char 
		 -> uart1Buffer(80), 
  pmdbs           1   50[BANK0 ] PTR struct .
		 -> uart1Buffer(80), 
  resp            1   49[BANK0 ] unsigned char 
 Return value:  Size  Location     Type
                  1    wreg      void 
 Registers used:
		wreg, fsr0l, fsr0h, fsr1l, fsr1h, status,2, status,0, pclath, cstack
 Tracked objects:
		On entry : 
		On exit  : 
		Unchanged: 
 Data sizes:     COMMON   BANK0   BANK1   BANK2   BANK3   BANK4   BANK5   BANK6   BANK7   BANK8  BANK10  BANK11  BANK12
      Params:         0       2       0       0       0       0       0       0       0       0       0       0       0
      Locals:         0       3       0       0       0       0       0       0       0       0       0       0       0
      Temps:          0       1       0       0       0       0       0       0       0       0       0       0       0
      Totals:         0       6       0       0       0       0       0       0       0       0       0       0       0
Total ram usage:        6 bytes
 Hardware stack levels used:    1
 Hardware stack levels required when called:    6
 This function calls:
		_crc_verify
		_modbus_response_command
		_modbus_response_illgeal_function
		_modbus_response_read_clib_data
		_modbus_response_write_clib_data
		_modbus_response_write_single_register
 This function is called by:
		_main
 This function uses a non-reentrant model


 *************** function _modbus_response_write_single_register *****************
 Defined at:
		line 111 in file "src/api/modbus.c"
 Parameters:    Size  Location     Type
  rbuf            1    wreg     PTR unsigned char 
		 -> uart1Buffer(80), 
 Auto vars:     Size  Location     Type
  rbuf            1   28[BANK0 ] PTR unsigned char 
		 -> uart1Buffer(80), 
  startAddr       2   25[BANK0 ] unsigned int 
  pmdbs           1   27[BANK0 ] PTR struct .
		 -> uart1Buffer(80), 
  len             1   24[BANK0 ] unsigned char 
 Return value:  Size  Location     Type
                  1    wreg      void 
 Registers used:
		wreg, fsr0l, fsr0h, fsr1l, fsr1h, status,2, status,0, pclath, cstack
 Tracked objects:
		On entry : 
		On exit  : 
		Unchanged: 
 Data sizes:     COMMON   BANK0   BANK1   BANK2   BANK3   BANK4   BANK5   BANK6   BANK7   BANK8  BANK10  BANK11  BANK12
      Params:         0       0       0       0       0       0       0       0       0       0       0       0       0
      Locals:         0       5       0       0       0       0       0       0       0       0       0       0       0
      Temps:          0       2       0       0       0       0       0       0       0       0       0       0       0
      Totals:         0       7       0       0       0       0       0       0       0       0       0       0       0
Total ram usage:        7 bytes
 Hardware stack levels used:    1
 Hardware stack levels required when called:    5
 This function calls:
		_crc_append
		_modbus_response_illgeal_function
		_my_uart1_send_poll
 This function is called by:
		_modbus_response_process
 This function uses a non-reentrant model


 *************** function _modbus_response_write_clib_data *****************
 Defined at:
		line 182 in file "src/api/modbus.c"
 Parameters:    Size  Location     Type
  buf             1    wreg     PTR unsigned char 
		 -> uart1Buffer(80), 
 Auto vars:     Size  Location     Type
  buf             1   44[BANK0 ] PTR unsigned char 
		 -> uart1Buffer(80), 
  startAddr       2   42[BANK0 ] unsigned int 
  t16             2   40[BANK0 ] unsigned int 
  pmdbs           1   45[BANK0 ] PTR struct .
		 -> uart1Buffer(80), 
 Return value:  Size  Location     Type
                  1    wreg      void 
 Registers used:
		wreg, fsr0l, fsr0h, fsr1l, fsr1h, status,2, status,0, pclath, cstack
 Tracked objects:
		On entry : 
		On exit  : 
		Unchanged: 
 Data sizes:     COMMON   BANK0   BANK1   BANK2   BANK3   BANK4   BANK5   BANK6   BANK7   BANK8  BANK10  BANK11  BANK12
      Params:         0       0       0       0       0       0       0       0       0       0       0       0       0
      Locals:         0       6       0       0       0       0       0       0       0       0       0       0       0
      Temps:          0       2       0       0       0       0       0       0       0       0       0       0       0
      Totals:         0       8       0       0       0       0       0       0       0       0       0       0       0
Total ram usage:        8 bytes
 Hardware stack levels used:    1
 Hardware stack levels required when called:    5
 This function calls:
		_crc_append
		_data_api_calibration_table_data_save
		_modbus_response_illgeal_function
		_my_uart1_send_poll
 This function is called by:
		_modbus_response_process
 This function uses a non-reentrant model


 *************** function _data_api_calibration_table_data_save *****************
 Defined at:
		line 198 in file "src/app/appdata.c"
 Parameters:    Size  Location     Type
  loc             1    wreg     unsigned char 
  single          1   19[BANK0 ] unsigned char 
 Auto vars:     Size  Location     Type
  loc             1   36[BANK0 ] unsigned char 
  stp             2   34[BANK0 ] PTR struct .
		 -> comBuffer(128), 
  i               1   37[BANK0 ] unsigned char 
 Return value:  Size  Location     Type
                  1    wreg      unsigned char 
 Registers used:
		wreg, fsr0l, fsr0h, fsr1l, fsr1h, status,2, status,0, pclath, cstack
 Tracked objects:
		On entry : 
		On exit  : 
		Unchanged: 
 Data sizes:     COMMON   BANK0   BANK1   BANK2   BANK3   BANK4   BANK5   BANK6   BANK7   BANK8  BANK10  BANK11  BANK12
      Params:         0       1       0       0       0       0       0       0       0       0       0       0       0
      Locals:         0       4       0       0       0       0       0       0       0       0       0       0       0
      Temps:          0      14       0       0       0       0       0       0       0       0       0       0       0
      Totals:         0      19       0       0       0       0       0       0       0       0       0       0       0
Total ram usage:       19 bytes
 Hardware stack levels used:    1
 Hardware stack levels required when called:    4
 This function calls:
		_crc_append
		_crc_verify
		_data_api_write_eeprom
		_m_mem_cpy_len
 This function is called by:
		_ui_key_process_down
		_ui_key_process_cancel
		_ui_key_set_process
		_modbus_response_write_clib_data
		_data_api_flash_process
 This function uses a non-reentrant model


 *************** function _modbus_response_read_clib_data *****************
 Defined at:
		line 211 in file "src/api/modbus.c"
 Parameters:    Size  Location     Type
  buf             1    wreg     PTR unsigned char 
		 -> uart1Buffer(80), 
 Auto vars:     Size  Location     Type
  buf             1   31[BANK0 ] PTR unsigned char 
		 -> uart1Buffer(80), 
  len             2   29[BANK0 ] unsigned int 
  startAddr       2   26[BANK0 ] unsigned int 
  i               2    0        unsigned int 
  pmdbs           1   28[BANK0 ] PTR struct .
		 -> uart1Buffer(80), 
 Return value:  Size  Location     Type
                  1    wreg      void 
 Registers used:
		wreg, fsr1l, fsr1h, status,2, status,0, pclath, cstack
 Tracked objects:
		On entry : 
		On exit  : 
		Unchanged: 
 Data sizes:     COMMON   BANK0   BANK1   BANK2   BANK3   BANK4   BANK5   BANK6   BANK7   BANK8  BANK10  BANK11  BANK12
      Params:         0       0       0       0       0       0       0       0       0       0       0       0       0
      Locals:         0       6       0       0       0       0       0       0       0       0       0       0       0
      Temps:          0       4       0       0       0       0       0       0       0       0       0       0       0
      Totals:         0      10       0       0       0       0       0       0       0       0       0       0       0
Total ram usage:       10 bytes
 Hardware stack levels used:    1
 Hardware stack levels required when called:    5
 This function calls:
		_crc_append
		_data_api_read_eeprom
		_modbus_response_illgeal_function
		_my_uart1_send_poll
 This function is called by:
		_modbus_response_process
 This function uses a non-reentrant model


 *************** function _modbus_response_illgeal_function *****************
 Defined at:
		line 6 in file "src/api/modbus.c"
 Parameters:    Size  Location     Type
  buf             1    wreg     PTR unsigned char 
		 -> uart1Buffer(80), 
  errcode         1   19[BANK0 ] unsigned char 
 Auto vars:     Size  Location     Type
  buf             1   21[BANK0 ] PTR unsigned char 
		 -> uart1Buffer(80), 
  pmdbs           1   20[BANK0 ] PTR struct .
		 -> uart1Buffer(80), 
 Return value:  Size  Location     Type
                  1    wreg      void 
 Registers used:
		wreg, fsr1l, fsr1h, status,2, status,0, pclath, cstack
 Tracked objects:
		On entry : 
		On exit  : 
		Unchanged: 
 Data sizes:     COMMON   BANK0   BANK1   BANK2   BANK3   BANK4   BANK5   BANK6   BANK7   BANK8  BANK10  BANK11  BANK12
      Params:         0       1       0       0       0       0       0       0       0       0       0       0       0
      Locals:         0       2       0       0       0       0       0       0       0       0       0       0       0
      Temps:          1       0       0       0       0       0       0       0       0       0       0       0       0
      Totals:         1       3       0       0       0       0       0       0       0       0       0       0       0
Total ram usage:        4 bytes
 Hardware stack levels used:    1
 Hardware stack levels required when called:    4
 This function calls:
		_crc_append
		_my_uart1_send_poll
 This function is called by:
		_modbus_response_write_single_register
		_modbus_response_write_clib_data
		_modbus_response_read_clib_data
		_modbus_response_process
 This function uses a non-reentrant model


 *************** function _modbus_response_command *****************
 Defined at:
		line 153 in file "src/api/modbus.c"
 Parameters:    Size  Location     Type
  rbuf            1    wreg     PTR unsigned char 
		 -> uart1Buffer(80), 
 Auto vars:     Size  Location     Type
  rbuf            1   41[BANK0 ] PTR unsigned char 
		 -> uart1Buffer(80), 
  tempData        2   42[BANK0 ] unsigned int 
  startAddr       2   36[BANK0 ] unsigned int 
  tmpAddr         2   34[BANK0 ] unsigned int 
  len             1   40[BANK0 ] unsigned char 
  i               1   39[BANK0 ] unsigned char 
  pmdbs           1   38[BANK0 ] PTR struct .
		 -> uart1Buffer(80), 
 Return value:  Size  Location     Type
                  1    wreg      void 
 Registers used:
		wreg, fsr0l, fsr0h, fsr1l, fsr1h, status,2, status,0, pclath, cstack
 Tracked objects:
		On entry : 
		On exit  : 
		Unchanged: 
 Data sizes:     COMMON   BANK0   BANK1   BANK2   BANK3   BANK4   BANK5   BANK6   BANK7   BANK8  BANK10  BANK11  BANK12
      Params:         0       0       0       0       0       0       0       0       0       0       0       0       0
      Locals:         0      10       0       0       0       0       0       0       0       0       0       0       0
      Temps:          0       2       0       0       0       0       0       0       0       0       0       0       0
      Totals:         0      12       0       0       0       0       0       0       0       0       0       0       0
Total ram usage:       12 bytes
 Hardware stack levels used:    1
 Hardware stack levels required when called:    4
 This function calls:
		_crc_append
		_getRegisterVal
		_my_uart1_send_poll
 This function is called by:
		_modbus_response_process
 This function uses a non-reentrant model


 *************** function _my_uart1_send_poll *****************
 Defined at:
		line 56 in file "mcc_generated_files/eusart1.c"
 Parameters:    Size  Location     Type
  buf             1    wreg     PTR unsigned char 
		 -> uart1Buffer(80), 
  len             1    3[COMMON] unsigned char 
 Auto vars:     Size  Location     Type
  buf             1    5[COMMON] PTR unsigned char 
		 -> uart1Buffer(80), 
 Return value:  Size  Location     Type
                  1    wreg      void 
 Registers used:
		wreg, fsr1l, fsr1h, status,2, status,0
 Tracked objects:
		On entry : 
		On exit  : 
		Unchanged: 
 Data sizes:     COMMON   BANK0   BANK1   BANK2   BANK3   BANK4   BANK5   BANK6   BANK7   BANK8  BANK10  BANK11  BANK12
      Params:         1       0       0       0       0       0       0       0       0       0       0       0       0
      Locals:         1       0       0       0       0       0       0       0       0       0       0       0       0
      Temps:          1       0       0       0       0       0       0       0       0       0       0       0       0
      Totals:         3       0       0       0       0       0       0       0       0       0       0       0       0
Total ram usage:        3 bytes
 Hardware stack levels used:    1
 Hardware stack levels required when called:    2
 This function calls:
		Nothing
 This function is called by:
		_modbus_response_illgeal_function
		_modbus_response_write_single_register
		_modbus_response_command
		_modbus_response_write_clib_data
		_modbus_response_read_clib_data
 This function uses a non-reentrant model


 *************** function _getRegisterVal *****************
 Defined at:
		line 18 in file "src/api/modbus.c"
 Parameters:    Size  Location     Type
  addr            2   21[BANK0 ] unsigned int 
  tempData        1   23[BANK0 ] PTR unsigned int 
		 -> modbus_response_command@tempData(2), 
 Auto vars:     Size  Location     Type
  tempAddr        2   30[BANK0 ] unsigned int 
  result          2   28[BANK0 ] unsigned int 
 Return value:  Size  Location     Type
                  2   21[BANK0 ] unsigned int 
 Registers used:
		wreg, fsr0l, fsr0h, fsr1l, fsr1h, status,2, status,0, pclath, cstack
 Tracked objects:
		On entry : 
		On exit  : 
		Unchanged: 
 Data sizes:     COMMON   BANK0   BANK1   BANK2   BANK3   BANK4   BANK5   BANK6   BANK7   BANK8  BANK10  BANK11  BANK12
      Params:         0       3       0       0       0       0       0       0       0       0       0       0       0
      Locals:         0       4       0       0       0       0       0       0       0       0       0       0       0
      Temps:          0       4       0       0       0       0       0       0       0       0       0       0       0
      Totals:         0      11       0       0       0       0       0       0       0       0       0       0       0
Total ram usage:       11 bytes
 Hardware stack levels used:    1
 Hardware stack levels required when called:    3
 This function calls:
		___aldiv
		___lldiv
		___lmul
 This function is called by:
		_modbus_response_command
 This function uses a non-reentrant model


 *************** function ___aldiv *****************
 Defined at:
		line 6 in file "C:\Program Files (x86)\Microchip\xc8\v1.42\sources\common\aldiv.c"
 Parameters:    Size  Location     Type
  divisor         4    0[BANK0 ] long 
  dividend        4    4[BANK0 ] long 
 Auto vars:     Size  Location     Type
  quotient        4   10[BANK0 ] long 
  sign            1    9[BANK0 ] unsigned char 
  counter         1    8[BANK0 ] unsigned char 
 Return value:  Size  Location     Type
                  4    0[BANK0 ] long 
 Registers used:
		wreg, status,2, status,0
 Tracked objects:
		On entry : 
		On exit  : 
		Unchanged: 
 Data sizes:     COMMON   BANK0   BANK1   BANK2   BANK3   BANK4   BANK5   BANK6   BANK7   BANK8  BANK10  BANK11  BANK12
      Params:         0       8       0       0       0       0       0       0       0       0       0       0       0
      Locals:         0       6       0       0       0       0       0       0       0       0       0       0       0
      Temps:          1       0       0       0       0       0       0       0       0       0       0       0       0
      Totals:         1      14       0       0       0       0       0       0       0       0       0       0       0
Total ram usage:       15 bytes
 Hardware stack levels used:    1
 Hardware stack levels required when called:    2
 This function calls:
		Nothing
 This function is called by:
		_ui_uint32_2_str
		_ui_key_process_enter
		_ui_disp_balance_and_volume
		_getRegisterVal
 This function uses a non-reentrant model


 *************** function _mfapi_pcd_init *****************
 Defined at:
		line 63 in file "src/nfc/apl/mfrc522_apl.c"
 Parameters:    Size  Location     Type
		None
 Auto vars:     Size  Location     Type
  v               1   10[BANK0 ] unsigned char 
 Return value:  Size  Location     Type
                  1    wreg      unsigned char 
 Registers used:
		wreg, status,2, status,0, pclath, cstack
 Tracked objects:
		On entry : 
		On exit  : 
		Unchanged: 
 Data sizes:     COMMON   BANK0   BANK1   BANK2   BANK3   BANK4   BANK5   BANK6   BANK7   BANK8  BANK10  BANK11  BANK12
      Params:         0       0       0       0       0       0       0       0       0       0       0       0       0
      Locals:         0       1       0       0       0       0       0       0       0       0       0       0       0
      Temps:          0       1       0       0       0       0       0       0       0       0       0       0       0
      Totals:         0       2       0       0       0       0       0       0       0       0       0       0       0
Total ram usage:        2 bytes
 Hardware stack levels used:    1
 Hardware stack levels required when called:    7
 This function calls:
		_mfrc522_bal_read_reg
		_mfrc522_hal_init
 This function is called by:
		_main
 This function uses a non-reentrant model


 *************** function _mfrc522_hal_init *****************
 Defined at:
		line 99 in file "src/nfc/hal/mfrc522_hal.c"
 Parameters:    Size  Location     Type
		None
 Auto vars:     Size  Location     Type
		None
 Return value:  Size  Location     Type
                  1    wreg      void 
 Registers used:
		wreg, status,2, status,0, pclath, cstack
 Tracked objects:
		On entry : 
		On exit  : 
		Unchanged: 
 Data sizes:     COMMON   BANK0   BANK1   BANK2   BANK3   BANK4   BANK5   BANK6   BANK7   BANK8  BANK10  BANK11  BANK12
      Params:         0       0       0       0       0       0       0       0       0       0       0       0       0
      Locals:         0       0       0       0       0       0       0       0       0       0       0       0       0
      Temps:          0       1       0       0       0       0       0       0       0       0       0       0       0
      Totals:         0       1       0       0       0       0       0       0       0       0       0       0       0
Total ram usage:        1 bytes
 Hardware stack levels used:    1
 Hardware stack levels required when called:    6
 This function calls:
		_delay
		_mfrc522_bal_write_reg
		_mfrc522_hal_antenna_on
		_mfrc522_hal_reset_sf
		_mfrc522_hal_set_antenna_gain
 This function is called by:
		_mfapi_pcd_init
 This function uses a non-reentrant model


 *************** function _mfrc522_hal_set_antenna_gain *****************
 Defined at:
		line 160 in file "src/nfc/hal/mfrc522_hal.c"
 Parameters:    Size  Location     Type
  gain            1    wreg     unsigned char 
 Auto vars:     Size  Location     Type
  gain            1    7[BANK0 ] unsigned char 
 Return value:  Size  Location     Type
                  1    wreg      void 
 Registers used:
		wreg, status,2, status,0, pclath, cstack
 Tracked objects:
		On entry : 
		On exit  : 
		Unchanged: 
 Data sizes:     COMMON   BANK0   BANK1   BANK2   BANK3   BANK4   BANK5   BANK6   BANK7   BANK8  BANK10  BANK11  BANK12
      Params:         0       0       0       0       0       0       0       0       0       0       0       0       0
      Locals:         0       1       0       0       0       0       0       0       0       0       0       0       0
      Temps:          0       1       0       0       0       0       0       0       0       0       0       0       0
      Totals:         0       2       0       0       0       0       0       0       0       0       0       0       0
Total ram usage:        2 bytes
 Hardware stack levels used:    1
 Hardware stack levels required when called:    5
 This function calls:
		_mfrc522_bal_clr_bit_reg
		_mfrc522_bal_set_bit_reg
		_mfrc522_hal_get_antenna_gain
 This function is called by:
		_mfrc522_hal_init
 This function uses a non-reentrant model


 *************** function _mfrc522_hal_get_antenna_gain *****************
 Defined at:
		line 152 in file "src/nfc/hal/mfrc522_hal.c"
 Parameters:    Size  Location     Type
		None
 Auto vars:     Size  Location     Type
  ret             1    3[BANK0 ] unsigned char 
 Return value:  Size  Location     Type
                  1    wreg      unsigned char 
 Registers used:
		wreg, status,2, status,0, pclath, cstack
 Tracked objects:
		On entry : 
		On exit  : 
		Unchanged: 
 Data sizes:     COMMON   BANK0   BANK1   BANK2   BANK3   BANK4   BANK5   BANK6   BANK7   BANK8  BANK10  BANK11  BANK12
      Params:         0       0       0       0       0       0       0       0       0       0       0       0       0
      Locals:         0       1       0       0       0       0       0       0       0       0       0       0       0
      Temps:          0       1       0       0       0       0       0       0       0       0       0       0       0
      Totals:         0       2       0       0       0       0       0       0       0       0       0       0       0
Total ram usage:        2 bytes
 Hardware stack levels used:    1
 Hardware stack levels required when called:    4
 This function calls:
		_mfrc522_bal_read_reg
 This function is called by:
		_mfrc522_hal_set_antenna_gain
 This function uses a non-reentrant model


 *************** function _mfrc522_bal_set_bit_reg *****************
 Defined at:
		line 136 in file "src/nfc/bal/mfrc522_bal.c"
 Parameters:    Size  Location     Type
  reg             1    wreg     unsigned char 
  bits            1    2[BANK0 ] unsigned char 
 Auto vars:     Size  Location     Type
  reg             1    5[BANK0 ] unsigned char 
  tmp             1    4[BANK0 ] unsigned char 
 Return value:  Size  Location     Type
                  1    wreg      void 
 Registers used:
		wreg, status,2, status,0, pclath, cstack
 Tracked objects:
		On entry : 
		On exit  : 
		Unchanged: 
 Data sizes:     COMMON   BANK0   BANK1   BANK2   BANK3   BANK4   BANK5   BANK6   BANK7   BANK8  BANK10  BANK11  BANK12
      Params:         0       1       0       0       0       0       0       0       0       0       0       0       0
      Locals:         0       2       0       0       0       0       0       0       0       0       0       0       0
      Temps:          0       1       0       0       0       0       0       0       0       0       0       0       0
      Totals:         0       4       0       0       0       0       0       0       0       0       0       0       0
Total ram usage:        4 bytes
 Hardware stack levels used:    1
 Hardware stack levels required when called:    4
 This function calls:
		_mfrc522_bal_read_reg
		_mfrc522_bal_write_reg
 This function is called by:
		_mfrc522_hal_calculate_crc
		_mfrc522_hal_set_antenna_gain
		_pcd_comm_with_picc
 This function uses a non-reentrant model


 *************** function _mfrc522_bal_clr_bit_reg *****************
 Defined at:
		line 146 in file "src/nfc/bal/mfrc522_bal.c"
 Parameters:    Size  Location     Type
  reg             1    wreg     unsigned char 
  bits            1    2[BANK0 ] unsigned char 
 Auto vars:     Size  Location     Type
  reg             1    5[BANK0 ] unsigned char 
  tmp             1    4[BANK0 ] unsigned char 
 Return value:  Size  Location     Type
                  1    wreg      void 
 Registers used:
		wreg, status,2, status,0, pclath, cstack
 Tracked objects:
		On entry : 
		On exit  : 
		Unchanged: 
 Data sizes:     COMMON   BANK0   BANK1   BANK2   BANK3   BANK4   BANK5   BANK6   BANK7   BANK8  BANK10  BANK11  BANK12
      Params:         0       1       0       0       0       0       0       0       0       0       0       0       0
      Locals:         0       2       0       0       0       0       0       0       0       0       0       0       0
      Temps:          0       1       0       0       0       0       0       0       0       0       0       0       0
      Totals:         0       4       0       0       0       0       0       0       0       0       0       0       0
Total ram usage:        4 bytes
 Hardware stack levels used:    1
 Hardware stack levels required when called:    4
 This function calls:
		_mfrc522_bal_read_reg
		_mfrc522_bal_write_reg
 This function is called by:
		_mfrc522_hal_set_antenna_gain
		_picc_req_a_or_wakeup_a
		_picc_select
		_picc_stop_cryptol
		_mfrc522_hal_antenna_off
 This function uses a non-reentrant model


 *************** function _mfrc522_hal_reset_sf *****************
 Defined at:
		line 129 in file "src/nfc/hal/mfrc522_hal.c"
 Parameters:    Size  Location     Type
		None
 Auto vars:     Size  Location     Type
		None
 Return value:  Size  Location     Type
                  1    wreg      void 
 Registers used:
		wreg, status,2, status,0, pclath, cstack
 Tracked objects:
		On entry : 
		On exit  : 
		Unchanged: 
 Data sizes:     COMMON   BANK0   BANK1   BANK2   BANK3   BANK4   BANK5   BANK6   BANK7   BANK8  BANK10  BANK11  BANK12
      Params:         0       0       0       0       0       0       0       0       0       0       0       0       0
      Locals:         0       0       0       0       0       0       0       0       0       0       0       0       0
      Temps:          0       1       0       0       0       0       0       0       0       0       0       0       0
      Totals:         0       1       0       0       0       0       0       0       0       0       0       0       0
Total ram usage:        1 bytes
 Hardware stack levels used:    1
 Hardware stack levels required when called:    4
 This function calls:
		_mfrc522_bal_write_reg
 This function is called by:
		_mfrc522_hal_init
 This function uses a non-reentrant model


 *************** function _mfrc522_hal_antenna_on *****************
 Defined at:
		line 138 in file "src/nfc/hal/mfrc522_hal.c"
 Parameters:    Size  Location     Type
		None
 Auto vars:     Size  Location     Type
  t8              1    3[BANK0 ] unsigned char 
 Return value:  Size  Location     Type
                  1    wreg      void 
 Registers used:
		wreg, status,2, status,0, pclath, cstack
 Tracked objects:
		On entry : 
		On exit  : 
		Unchanged: 
 Data sizes:     COMMON   BANK0   BANK1   BANK2   BANK3   BANK4   BANK5   BANK6   BANK7   BANK8  BANK10  BANK11  BANK12
      Params:         0       0       0       0       0       0       0       0       0       0       0       0       0
      Locals:         0       1       0       0       0       0       0       0       0       0       0       0       0
      Temps:          0       1       0       0       0       0       0       0       0       0       0       0       0
      Totals:         0       2       0       0       0       0       0       0       0       0       0       0       0
Total ram usage:        2 bytes
 Hardware stack levels used:    1
 Hardware stack levels required when called:    4
 This function calls:
		_mfrc522_bal_read_reg
		_mfrc522_bal_write_reg
 This function is called by:
		_mfrc522_hal_init
 This function uses a non-reentrant model


 *************** function _mfrc522_bal_write_reg *****************
 Defined at:
		line 47 in file "src/nfc/bal/mfrc522_bal.c"
 Parameters:    Size  Location     Type
  reg             1    wreg     unsigned char 
  x               1    7[COMMON] unsigned char 
 Auto vars:     Size  Location     Type
  reg             1    0[BANK0 ] unsigned char 
 Return value:  Size  Location     Type
                  1    wreg      void 
 Registers used:
		wreg, status,2, status,0, pclath, cstack
 Tracked objects:
		On entry : 
		On exit  : 
		Unchanged: 
 Data sizes:     COMMON   BANK0   BANK1   BANK2   BANK3   BANK4   BANK5   BANK6   BANK7   BANK8  BANK10  BANK11  BANK12
      Params:         1       0       0       0       0       0       0       0       0       0       0       0       0
      Locals:         0       1       0       0       0       0       0       0       0       0       0       0       0
      Temps:          0       0       0       0       0       0       0       0       0       0       0       0       0
      Totals:         1       1       0       0       0       0       0       0       0       0       0       0       0
Total ram usage:        2 bytes
 Hardware stack levels used:    1
 Hardware stack levels required when called:    3
 This function calls:
		_mfrc522_bal_write_read_via_spi
 This function is called by:
		_mfrc522_bal_set_bit_reg
		_mfrc522_bal_clr_bit_reg
		_mfrc522_hal_calculate_crc
		_mfrc522_hal_init
		_mfrc522_hal_reset_sf
		_mfrc522_hal_antenna_on
		_pcd_comm_with_picc
		_picc_select
 This function uses a non-reentrant model


 *************** function _mfrc522_bal_read_reg *****************
 Defined at:
		line 75 in file "src/nfc/bal/mfrc522_bal.c"
 Parameters:    Size  Location     Type
  reg             1    wreg     unsigned char 
 Auto vars:     Size  Location     Type
  reg             1    0[BANK0 ] unsigned char 
  x               1    1[BANK0 ] unsigned char 
 Return value:  Size  Location     Type
                  1    wreg      unsigned char 
 Registers used:
		wreg, status,2, status,0, pclath, cstack
 Tracked objects:
		On entry : 
		On exit  : 
		Unchanged: 
 Data sizes:     COMMON   BANK0   BANK1   BANK2   BANK3   BANK4   BANK5   BANK6   BANK7   BANK8  BANK10  BANK11  BANK12
      Params:         0       0       0       0       0       0       0       0       0       0       0       0       0
      Locals:         0       2       0       0       0       0       0       0       0       0       0       0       0
      Temps:          1       0       0       0       0       0       0       0       0       0       0       0       0
      Totals:         1       2       0       0       0       0       0       0       0       0       0       0       0
Total ram usage:        3 bytes
 Hardware stack levels used:    1
 Hardware stack levels required when called:    3
 This function calls:
		_mfrc522_bal_write_read_via_spi
 This function is called by:
		_mfapi_pcd_init
		_mfrc522_bal_set_bit_reg
		_mfrc522_bal_clr_bit_reg
		_mfrc522_hal_calculate_crc
		_mfrc522_hal_antenna_on
		_mfrc522_hal_get_antenna_gain
		_pcd_comm_with_picc
		_picc_select
 This function uses a non-reentrant model


 *************** function _mfrc522_bal_write_read_via_spi *****************
 Defined at:
		line 19 in file "src/nfc/bal/mfrc522_bal.c"
 Parameters:    Size  Location     Type
  x               1    wreg     unsigned char 
 Auto vars:     Size  Location     Type
  x               1    4[COMMON] unsigned char 
  i               1    6[COMMON] unsigned char 
  rb              1    5[COMMON] unsigned char 
 Return value:  Size  Location     Type
                  1    wreg      unsigned char 
 Registers used:
		wreg, status,2, status,0
 Tracked objects:
		On entry : 
		On exit  : 
		Unchanged: 
 Data sizes:     COMMON   BANK0   BANK1   BANK2   BANK3   BANK4   BANK5   BANK6   BANK7   BANK8  BANK10  BANK11  BANK12
      Params:         0       0       0       0       0       0       0       0       0       0       0       0       0
      Locals:         3       0       0       0       0       0       0       0       0       0       0       0       0
      Temps:          1       0       0       0       0       0       0       0       0       0       0       0       0
      Totals:         4       0       0       0       0       0       0       0       0       0       0       0       0
Total ram usage:        4 bytes
 Hardware stack levels used:    1
 Hardware stack levels required when called:    2
 This function calls:
		Nothing
 This function is called by:
		_mfrc522_bal_write_reg
		_mfrc522_bal_write_reg_len
		_mfrc522_bal_read_reg
		_mfrc522_bal_read_fifo_len_ex
 This function uses a non-reentrant model


 *************** function _m_system_init *****************
 Defined at:
		line 4 in file "main.c"
 Parameters:    Size  Location     Type
		None
 Auto vars:     Size  Location     Type
		None
 Return value:  Size  Location     Type
                  1    wreg      void 
 Registers used:
		wreg, fsr1l, fsr1h, status,2, status,0, pclath, cstack
 Tracked objects:
		On entry : 
		On exit  : 
		Unchanged: 
 Data sizes:     COMMON   BANK0   BANK1   BANK2   BANK3   BANK4   BANK5   BANK6   BANK7   BANK8  BANK10  BANK11  BANK12
      Params:         0       0       0       0       0       0       0       0       0       0       0       0       0
      Locals:         0       0       0       0       0       0       0       0       0       0       0       0       0
      Temps:          0       0       0       0       0       0       0       0       0       0       0       0       0
      Totals:         0       0       0       0       0       0       0       0       0       0       0       0       0
Total ram usage:        0 bytes
 Hardware stack levels used:    1
 Hardware stack levels required when called:    5
 This function calls:
		_SYSTEM_Initialize
		_lcd_init
		_led_port_init
		_other_gpio_port_init
 This function is called by:
		_main
 This function uses a non-reentrant model


 *************** function _other_gpio_port_init *****************
 Defined at:
		line 8 in file "src/driver/other-gpio.c"
 Parameters:    Size  Location     Type
		None
 Auto vars:     Size  Location     Type
		None
 Return value:  Size  Location     Type
                  1    wreg      void 
 Registers used:
		None
 Tracked objects:
		On entry : 
		On exit  : 
		Unchanged: 
 Data sizes:     COMMON   BANK0   BANK1   BANK2   BANK3   BANK4   BANK5   BANK6   BANK7   BANK8  BANK10  BANK11  BANK12
      Params:         0       0       0       0       0       0       0       0       0       0       0       0       0
      Locals:         0       0       0       0       0       0       0       0       0       0       0       0       0
      Temps:          0       0       0       0       0       0       0       0       0       0       0       0       0
      Totals:         0       0       0       0       0       0       0       0       0       0       0       0       0
Total ram usage:        0 bytes
 Hardware stack levels used:    1
 Hardware stack levels required when called:    2
 This function calls:
		Nothing
 This function is called by:
		_m_system_init
 This function uses a non-reentrant model


 *************** function _led_port_init *****************
 Defined at:
		line 4 in file "src/driver/led.c"
 Parameters:    Size  Location     Type
		None
 Auto vars:     Size  Location     Type
		None
 Return value:  Size  Location     Type
                  1    wreg      void 
 Registers used:
		None
 Tracked objects:
		On entry : 
		On exit  : 
		Unchanged: 
 Data sizes:     COMMON   BANK0   BANK1   BANK2   BANK3   BANK4   BANK5   BANK6   BANK7   BANK8  BANK10  BANK11  BANK12
      Params:         0       0       0       0       0       0       0       0       0       0       0       0       0
      Locals:         0       0       0       0       0       0       0       0       0       0       0       0       0
      Temps:          0       0       0       0       0       0       0       0       0       0       0       0       0
      Totals:         0       0       0       0       0       0       0       0       0       0       0       0       0
Total ram usage:        0 bytes
 Hardware stack levels used:    1
 Hardware stack levels required when called:    2
 This function calls:
		Nothing
 This function is called by:
		_m_system_init
 This function uses a non-reentrant model


 *************** function _lcd_init *****************
 Defined at:
		line 251 in file "src/driver/lcd.c"
 Parameters:    Size  Location     Type
		None
 Auto vars:     Size  Location     Type
		None
 Return value:  Size  Location     Type
                  1    wreg      void 
 Registers used:
		wreg, fsr1l, fsr1h, status,2, status,0, pclath, cstack
 Tracked objects:
		On entry : 
		On exit  : 
		Unchanged: 
 Data sizes:     COMMON   BANK0   BANK1   BANK2   BANK3   BANK4   BANK5   BANK6   BANK7   BANK8  BANK10  BANK11  BANK12
      Params:         0       0       0       0       0       0       0       0       0       0       0       0       0
      Locals:         0       0       0       0       0       0       0       0       0       0       0       0       0
      Temps:          0       0       0       0       0       0       0       0       0       0       0       0       0
      Totals:         0       0       0       0       0       0       0       0       0       0       0       0       0
Total ram usage:        0 bytes
 Hardware stack levels used:    1
 Hardware stack levels required when called:    4
 This function calls:
		_lcd_config
 This function is called by:
		_m_system_init
 This function uses a non-reentrant model


 *************** function _lcd_config *****************
 Defined at:
		line 211 in file "src/driver/lcd.c"
 Parameters:    Size  Location     Type
		None
 Auto vars:     Size  Location     Type
		None
 Return value:  Size  Location     Type
                  1    wreg      void 
 Registers used:
		wreg, fsr1l, fsr1h, status,2, status,0, pclath, cstack
 Tracked objects:
		On entry : 
		On exit  : 
		Unchanged: 
 Data sizes:     COMMON   BANK0   BANK1   BANK2   BANK3   BANK4   BANK5   BANK6   BANK7   BANK8  BANK10  BANK11  BANK12
      Params:         0       0       0       0       0       0       0       0       0       0       0       0       0
      Locals:         0       0       0       0       0       0       0       0       0       0       0       0       0
      Temps:          0       0       0       0       0       0       0       0       0       0       0       0       0
      Totals:         0       0       0       0       0       0       0       0       0       0       0       0       0
Total ram usage:        0 bytes
 Hardware stack levels used:    1
 Hardware stack levels required when called:    3
 This function calls:
		_lcd_disp_all
 This function is called by:
		_lcd_init
 This function uses a non-reentrant model


 *************** function _lcd_disp_all *****************
 Defined at:
		line 194 in file "src/driver/lcd.c"
 Parameters:    Size  Location     Type
  x               1    wreg     unsigned char 
 Auto vars:     Size  Location     Type
  x               1    0[BANK0 ] unsigned char 
  i               1    1[BANK0 ] unsigned char 
 Return value:  Size  Location     Type
                  1    wreg      void 
 Registers used:
		wreg, fsr1l, fsr1h, status,2, status,0
 Tracked objects:
		On entry : 
		On exit  : 
		Unchanged: 
 Data sizes:     COMMON   BANK0   BANK1   BANK2   BANK3   BANK4   BANK5   BANK6   BANK7   BANK8  BANK10  BANK11  BANK12
      Params:         0       0       0       0       0       0       0       0       0       0       0       0       0
      Locals:         0       2       0       0       0       0       0       0       0       0       0       0       0
      Temps:          4       0       0       0       0       0       0       0       0       0       0       0       0
      Totals:         4       2       0       0       0       0       0       0       0       0       0       0       0
Total ram usage:        6 bytes
 Hardware stack levels used:    1
 Hardware stack levels required when called:    2
 This function calls:
		Nothing
 This function is called by:
		_ui_start_display
		_lcd_config
		_m_system_start_self_test
 This function uses a non-reentrant model


 *************** function _SYSTEM_Initialize *****************
 Defined at:
		line 70 in file "mcc_generated_files/mcc.c"
 Parameters:    Size  Location     Type
		None
 Auto vars:     Size  Location     Type
		None
 Return value:  Size  Location     Type
                  1    wreg      void 
 Registers used:
		wreg, status,2, status,0, pclath, cstack
 Tracked objects:
		On entry : 
		On exit  : 
		Unchanged: 
 Data sizes:     COMMON   BANK0   BANK1   BANK2   BANK3   BANK4   BANK5   BANK6   BANK7   BANK8  BANK10  BANK11  BANK12
      Params:         0       0       0       0       0       0       0       0       0       0       0       0       0
      Locals:         0       0       0       0       0       0       0       0       0       0       0       0       0
      Temps:          0       0       0       0       0       0       0       0       0       0       0       0       0
      Totals:         0       0       0       0       0       0       0       0       0       0       0       0       0
Total ram usage:        0 bytes
 Hardware stack levels used:    1
 Hardware stack levels required when called:    4
 This function calls:
		_EUSART1_Initialize
		_OSCILLATOR_Initialize
		_PIN_MANAGER_Initialize
		_TMR0_Initialize
		_TMR1_Initialize
		_WDT_Initialize
 This function is called by:
		_m_system_init
 This function uses a non-reentrant model


 *************** function _WDT_Initialize *****************
 Defined at:
		line 91 in file "mcc_generated_files/mcc.c"
 Parameters:    Size  Location     Type
		None
 Auto vars:     Size  Location     Type
		None
 Return value:  Size  Location     Type
                  1    wreg      void 
 Registers used:
		wreg
 Tracked objects:
		On entry : 
		On exit  : 
		Unchanged: 
 Data sizes:     COMMON   BANK0   BANK1   BANK2   BANK3   BANK4   BANK5   BANK6   BANK7   BANK8  BANK10  BANK11  BANK12
      Params:         0       0       0       0       0       0       0       0       0       0       0       0       0
      Locals:         0       0       0       0       0       0       0       0       0       0       0       0       0
      Temps:          0       0       0       0       0       0       0       0       0       0       0       0       0
      Totals:         0       0       0       0       0       0       0       0       0       0       0       0       0
Total ram usage:        0 bytes
 Hardware stack levels used:    1
 Hardware stack levels required when called:    2
 This function calls:
		Nothing
 This function is called by:
		_SYSTEM_Initialize
 This function uses a non-reentrant model


 *************** function _TMR1_Initialize *****************
 Defined at:
		line 64 in file "mcc_generated_files/tmr1.c"
 Parameters:    Size  Location     Type
		None
 Auto vars:     Size  Location     Type
		None
 Return value:  Size  Location     Type
                  1    wreg      void 
 Registers used:
		wreg, status,2, status,0, pclath, cstack
 Tracked objects:
		On entry : 
		On exit  : 
		Unchanged: 
 Data sizes:     COMMON   BANK0   BANK1   BANK2   BANK3   BANK4   BANK5   BANK6   BANK7   BANK8  BANK10  BANK11  BANK12
      Params:         0       0       0       0       0       0       0       0       0       0       0       0       0
      Locals:         0       0       0       0       0       0       0       0       0       0       0       0       0
      Temps:          0       0       0       0       0       0       0       0       0       0       0       0       0
      Totals:         0       0       0       0       0       0       0       0       0       0       0       0       0
Total ram usage:        0 bytes
 Hardware stack levels used:    1
 Hardware stack levels required when called:    3
 This function calls:
		_TMR1_SetInterruptHandler
		_TMR1_StartTimer
 This function is called by:
		_SYSTEM_Initialize
 This function uses a non-reentrant model


 *************** function _TMR1_StartTimer *****************
 Defined at:
		line 96 in file "mcc_generated_files/tmr1.c"
 Parameters:    Size  Location     Type
		None
 Auto vars:     Size  Location     Type
		None
 Return value:  Size  Location     Type
                  1    wreg      void 
 Registers used:
		None
 Tracked objects:
		On entry : 
		On exit  : 
		Unchanged: 
 Data sizes:     COMMON   BANK0   BANK1   BANK2   BANK3   BANK4   BANK5   BANK6   BANK7   BANK8  BANK10  BANK11  BANK12
      Params:         0       0       0       0       0       0       0       0       0       0       0       0       0
      Locals:         0       0       0       0       0       0       0       0       0       0       0       0       0
      Temps:          0       0       0       0       0       0       0       0       0       0       0       0       0
      Totals:         0       0       0       0       0       0       0       0       0       0       0       0       0
Total ram usage:        0 bytes
 Hardware stack levels used:    1
 Hardware stack levels required when called:    2
 This function calls:
		Nothing
 This function is called by:
		_TMR1_Initialize
 This function uses a non-reentrant model


 *************** function _TMR1_SetInterruptHandler *****************
 Defined at:
		line 179 in file "mcc_generated_files/tmr1.c"
 Parameters:    Size  Location     Type
  InterruptHan    2    3[COMMON] PTR void 
		 -> TMR1_DefaultInterruptHandler(1), 
 Auto vars:     Size  Location     Type
		None
 Return value:  Size  Location     Type
                  1    wreg      void 
 Registers used:
		wreg
 Tracked objects:
		On entry : 
		On exit  : 
		Unchanged: 
 Data sizes:     COMMON   BANK0   BANK1   BANK2   BANK3   BANK4   BANK5   BANK6   BANK7   BANK8  BANK10  BANK11  BANK12
      Params:         2       0       0       0       0       0       0       0       0       0       0       0       0
      Locals:         0       0       0       0       0       0       0       0       0       0       0       0       0
      Temps:          0       0       0       0       0       0       0       0       0       0       0       0       0
      Totals:         2       0       0       0       0       0       0       0       0       0       0       0       0
Total ram usage:        2 bytes
 Hardware stack levels used:    1
 Hardware stack levels required when called:    2
 This function calls:
		Nothing
 This function is called by:
		_TMR1_Initialize
 This function uses a non-reentrant model


 *************** function _TMR0_Initialize *****************
 Defined at:
		line 65 in file "mcc_generated_files/tmr0.c"
 Parameters:    Size  Location     Type
		None
 Auto vars:     Size  Location     Type
		None
 Return value:  Size  Location     Type
                  1    wreg      void 
 Registers used:
		wreg, status,2, status,0, pclath, cstack
 Tracked objects:
		On entry : 
		On exit  : 
		Unchanged: 
 Data sizes:     COMMON   BANK0   BANK1   BANK2   BANK3   BANK4   BANK5   BANK6   BANK7   BANK8  BANK10  BANK11  BANK12
      Params:         0       0       0       0       0       0       0       0       0       0       0       0       0
      Locals:         0       0       0       0       0       0       0       0       0       0       0       0       0
      Temps:          1       0       0       0       0       0       0       0       0       0       0       0       0
      Totals:         1       0       0       0       0       0       0       0       0       0       0       0       0
Total ram usage:        1 bytes
 Hardware stack levels used:    1
 Hardware stack levels required when called:    3
 This function calls:
		_TMR0_SetInterruptHandler
 This function is called by:
		_SYSTEM_Initialize
 This function uses a non-reentrant model


 *************** function _TMR0_SetInterruptHandler *****************
 Defined at:
		line 155 in file "mcc_generated_files/tmr0.c"
 Parameters:    Size  Location     Type
  InterruptHan    2    3[COMMON] PTR void 
		 -> TMR0_DefaultInterruptHandler(1), 
 Auto vars:     Size  Location     Type
		None
 Return value:  Size  Location     Type
                  1    wreg      void 
 Registers used:
		wreg
 Tracked objects:
		On entry : 
		On exit  : 
		Unchanged: 
 Data sizes:     COMMON   BANK0   BANK1   BANK2   BANK3   BANK4   BANK5   BANK6   BANK7   BANK8  BANK10  BANK11  BANK12
      Params:         2       0       0       0       0       0       0       0       0       0       0       0       0
      Locals:         0       0       0       0       0       0       0       0       0       0       0       0       0
      Temps:          0       0       0       0       0       0       0       0       0       0       0       0       0
      Totals:         2       0       0       0       0       0       0       0       0       0       0       0       0
Total ram usage:        2 bytes
 Hardware stack levels used:    1
 Hardware stack levels required when called:    2
 This function calls:
		Nothing
 This function is called by:
		_TMR0_Initialize
 This function uses a non-reentrant model


 *************** function _PIN_MANAGER_Initialize *****************
 Defined at:
		line 51 in file "mcc_generated_files/pin_manager.c"
 Parameters:    Size  Location     Type
		None
 Auto vars:     Size  Location     Type
		None
 Return value:  Size  Location     Type
                  1    wreg      void 
 Registers used:
		wreg, status,2
 Tracked objects:
		On entry : 
		On exit  : 
		Unchanged: 
 Data sizes:     COMMON   BANK0   BANK1   BANK2   BANK3   BANK4   BANK5   BANK6   BANK7   BANK8  BANK10  BANK11  BANK12
      Params:         0       0       0       0       0       0       0       0       0       0       0       0       0
      Locals:         0       0       0       0       0       0       0       0       0       0       0       0       0
      Temps:          0       0       0       0       0       0       0       0       0       0       0       0       0
      Totals:         0       0       0       0       0       0       0       0       0       0       0       0       0
Total ram usage:        0 bytes
 Hardware stack levels used:    1
 Hardware stack levels required when called:    2
 This function calls:
		Nothing
 This function is called by:
		_SYSTEM_Initialize
 This function uses a non-reentrant model


 *************** function _OSCILLATOR_Initialize *****************
 Defined at:
		line 81 in file "mcc_generated_files/mcc.c"
 Parameters:    Size  Location     Type
		None
 Auto vars:     Size  Location     Type
		None
 Return value:  Size  Location     Type
                  1    wreg      void 
 Registers used:
		wreg, status,2
 Tracked objects:
		On entry : 
		On exit  : 
		Unchanged: 
 Data sizes:     COMMON   BANK0   BANK1   BANK2   BANK3   BANK4   BANK5   BANK6   BANK7   BANK8  BANK10  BANK11  BANK12
      Params:         0       0       0       0       0       0       0       0       0       0       0       0       0
      Locals:         0       0       0       0       0       0       0       0       0       0       0       0       0
      Temps:          0       0       0       0       0       0       0       0       0       0       0       0       0
      Totals:         0       0       0       0       0       0       0       0       0       0       0       0       0
Total ram usage:        0 bytes
 Hardware stack levels used:    1
 Hardware stack levels required when called:    2
 This function calls:
		Nothing
 This function is called by:
		_SYSTEM_Initialize
 This function uses a non-reentrant model


 *************** function _EUSART1_Initialize *****************
 Defined at:
		line 14 in file "mcc_generated_files/eusart1.c"
 Parameters:    Size  Location     Type
		None
 Auto vars:     Size  Location     Type
		None
 Return value:  Size  Location     Type
                  1    wreg      void 
 Registers used:
		wreg
 Tracked objects:
		On entry : 
		On exit  : 
		Unchanged: 
 Data sizes:     COMMON   BANK0   BANK1   BANK2   BANK3   BANK4   BANK5   BANK6   BANK7   BANK8  BANK10  BANK11  BANK12
      Params:         0       0       0       0       0       0       0       0       0       0       0       0       0
      Locals:         0       0       0       0       0       0       0       0       0       0       0       0       0
      Temps:          0       0       0       0       0       0       0       0       0       0       0       0       0
      Totals:         0       0       0       0       0       0       0       0       0       0       0       0       0
Total ram usage:        0 bytes
 Hardware stack levels used:    1
 Hardware stack levels required when called:    2
 This function calls:
		Nothing
 This function is called by:
		_SYSTEM_Initialize
 This function uses a non-reentrant model


 *************** function _flow_sampling_process *****************
 Defined at:
		line 259 in file "src/app/flow.c"
 Parameters:    Size  Location     Type
		None
 Auto vars:     Size  Location     Type
  i               1   44[BANK0 ] unsigned char 
 Return value:  Size  Location     Type
                  1    wreg      void 
 Registers used:
		wreg, fsr1l, fsr1h, status,2, status,0, pclath, cstack
 Tracked objects:
		On entry : 
		On exit  : 
		Unchanged: 
 Data sizes:     COMMON   BANK0   BANK1   BANK2   BANK3   BANK4   BANK5   BANK6   BANK7   BANK8  BANK10  BANK11  BANK12
      Params:         0       0       0       0       0       0       0       0       0       0       0       0       0
      Locals:         0       1       0       0       0       0       0       0       0       0       0       0       0
      Temps:          0       1       0       0       0       0       0       0       0       0       0       0       0
      Totals:         0       2       0       0       0       0       0       0       0       0       0       0       0
Total ram usage:        2 bytes
 Hardware stack levels used:    1
 Hardware stack levels required when called:    7
 This function calls:
		_adc_mcp3241_read_convert_16
		_adc_mcp3241_start_convert_16
		_app_flow_adc_2_flow
		_app_flow_get_adcAverageValue
		_app_flow_lookup
		_app_flow_money_off
		_app_flow_money_warning
		_app_flow_rt_balance_money_cal
		_app_flow_rt_volume_cal_ex
 This function is called by:
		_main
 This function uses a non-reentrant model


 *************** function _app_flow_rt_volume_cal_ex *****************
 Defined at:
		line 167 in file "src/app/flow.c"
 Parameters:    Size  Location     Type
		None
 Auto vars:     Size  Location     Type
		None
 Return value:  Size  Location     Type
                  1    wreg      void 
 Registers used:
		wreg, status,2, status,0, pclath, cstack
 Tracked objects:
		On entry : 
		On exit  : 
		Unchanged: 
 Data sizes:     COMMON   BANK0   BANK1   BANK2   BANK3   BANK4   BANK5   BANK6   BANK7   BANK8  BANK10  BANK11  BANK12
      Params:         0       0       0       0       0       0       0       0       0       0       0       0       0
      Locals:         0       0       0       0       0       0       0       0       0       0       0       0       0
      Temps:          0       4       0       0       0       0       0       0       0       0       0       0       0
      Totals:         0       4       0       0       0       0       0       0       0       0       0       0       0
Total ram usage:        4 bytes
 Hardware stack levels used:    1
 Hardware stack levels required when called:    3
 This function calls:
		___lldiv
		___llmod
		___lmul
 This function is called by:
		_flow_sampling_process
 This function uses a non-reentrant model


 *************** function ___llmod *****************
 Defined at:
		line 6 in file "C:\Program Files (x86)\Microchip\xc8\v1.42\sources\common\llmod.c"
 Parameters:    Size  Location     Type
  divisor         4    0[BANK0 ] unsigned long 
  dividend        4    4[BANK0 ] unsigned long 
 Auto vars:     Size  Location     Type
  counter         1    4[COMMON] unsigned char 
 Return value:  Size  Location     Type
                  4    0[BANK0 ] unsigned long 
 Registers used:
		wreg, status,2, status,0
 Tracked objects:
		On entry : 
		On exit  : 
		Unchanged: 
 Data sizes:     COMMON   BANK0   BANK1   BANK2   BANK3   BANK4   BANK5   BANK6   BANK7   BANK8  BANK10  BANK11  BANK12
      Params:         0       8       0       0       0       0       0       0       0       0       0       0       0
      Locals:         1       0       0       0       0       0       0       0       0       0       0       0       0
      Temps:          1       0       0       0       0       0       0       0       0       0       0       0       0
      Totals:         2       8       0       0       0       0       0       0       0       0       0       0       0
Total ram usage:       10 bytes
 Hardware stack levels used:    1
 Hardware stack levels required when called:    2
 This function calls:
		Nothing
 This function is called by:
		_app_flow_rt_volume_cal_ex
		_app_flow_rt_volume_cal
 This function uses a non-reentrant model


 *************** function _app_flow_rt_balance_money_cal *****************
 Defined at:
		line 183 in file "src/app/flow.c"
 Parameters:    Size  Location     Type
		None
 Auto vars:     Size  Location     Type
		None
 Return value:  Size  Location     Type
                  1    wreg      void 
 Registers used:
		wreg, status,2, status,0, pclath, cstack
 Tracked objects:
		On entry : 
		On exit  : 
		Unchanged: 
 Data sizes:     COMMON   BANK0   BANK1   BANK2   BANK3   BANK4   BANK5   BANK6   BANK7   BANK8  BANK10  BANK11  BANK12
      Params:         0       0       0       0       0       0       0       0       0       0       0       0       0
      Locals:         0       0       0       0       0       0       0       0       0       0       0       0       0
      Temps:          0       8       0       0       0       0       0       0       0       0       0       0       0
      Totals:         0       8       0       0       0       0       0       0       0       0       0       0       0
Total ram usage:        8 bytes
 Hardware stack levels used:    1
 Hardware stack levels required when called:    3
 This function calls:
		___lldiv
		___lmul
 This function is called by:
		_flow_sampling_process
 This function uses a non-reentrant model


 *************** function _app_flow_money_warning *****************
 Defined at:
		line 191 in file "src/app/flow.c"
 Parameters:    Size  Location     Type
		None
 Auto vars:     Size  Location     Type
		None
 Return value:  Size  Location     Type
                  1    wreg      void 
 Registers used:
		wreg
 Tracked objects:
		On entry : 
		On exit  : 
		Unchanged: 
 Data sizes:     COMMON   BANK0   BANK1   BANK2   BANK3   BANK4   BANK5   BANK6   BANK7   BANK8  BANK10  BANK11  BANK12
      Params:         0       0       0       0       0       0       0       0       0       0       0       0       0
      Locals:         0       0       0       0       0       0       0       0       0       0       0       0       0
      Temps:          1       0       0       0       0       0       0       0       0       0       0       0       0
      Totals:         1       0       0       0       0       0       0       0       0       0       0       0       0
Total ram usage:        1 bytes
 Hardware stack levels used:    1
 Hardware stack levels required when called:    2
 This function calls:
		Nothing
 This function is called by:
		_flow_sampling_process
 This function uses a non-reentrant model


 *************** function _app_flow_money_off *****************
 Defined at:
		line 200 in file "src/app/flow.c"
 Parameters:    Size  Location     Type
		None
 Auto vars:     Size  Location     Type
		None
 Return value:  Size  Location     Type
                  1    wreg      void 
 Registers used:
		wreg, status,2, status,0, pclath, cstack
 Tracked objects:
		On entry : 
		On exit  : 
		Unchanged: 
 Data sizes:     COMMON   BANK0   BANK1   BANK2   BANK3   BANK4   BANK5   BANK6   BANK7   BANK8  BANK10  BANK11  BANK12
      Params:         0       0       0       0       0       0       0       0       0       0       0       0       0
      Locals:         0       0       0       0       0       0       0       0       0       0       0       0       0
      Temps:          1       0       0       0       0       0       0       0       0       0       0       0       0
      Totals:         1       0       0       0       0       0       0       0       0       0       0       0       0
Total ram usage:        1 bytes
 Hardware stack levels used:    1
 Hardware stack levels required when called:    4
 This function calls:
		_in_app_vavle_off
 This function is called by:
		_flow_sampling_process
 This function uses a non-reentrant model


 *************** function _in_app_vavle_off *****************
 Defined at:
		line 25 in file "src/app/flow.c"
 Parameters:    Size  Location     Type
  op              1    wreg     enum E5863
 Auto vars:     Size  Location     Type
  op              1    5[COMMON] enum E5863
 Return value:  Size  Location     Type
                  1    wreg      void 
 Registers used:
		wreg, status,2, status,0, pclath, cstack
 Tracked objects:
		On entry : 
		On exit  : 
		Unchanged: 
 Data sizes:     COMMON   BANK0   BANK1   BANK2   BANK3   BANK4   BANK5   BANK6   BANK7   BANK8  BANK10  BANK11  BANK12
      Params:         0       0       0       0       0       0       0       0       0       0       0       0       0
      Locals:         1       0       0       0       0       0       0       0       0       0       0       0       0
      Temps:          1       0       0       0       0       0       0       0       0       0       0       0       0
      Totals:         2       0       0       0       0       0       0       0       0       0       0       0       0
Total ram usage:        2 bytes
 Hardware stack levels used:    1
 Hardware stack levels required when called:    3
 This function calls:
		_valve_off
 This function is called by:
		_app_flow_money_off
		_rfid_comm_process
 This function uses a non-reentrant model


 *************** function _valve_off *****************
 Defined at:
		line 21 in file "src/driver/other-gpio.c"
 Parameters:    Size  Location     Type
		None
 Auto vars:     Size  Location     Type
		None
 Return value:  Size  Location     Type
                  1    wreg      void 
 Registers used:
		wreg, status,2, status,0
 Tracked objects:
		On entry : 
		On exit  : 
		Unchanged: 
 Data sizes:     COMMON   BANK0   BANK1   BANK2   BANK3   BANK4   BANK5   BANK6   BANK7   BANK8  BANK10  BANK11  BANK12
      Params:         0       0       0       0       0       0       0       0       0       0       0       0       0
      Locals:         0       0       0       0       0       0       0       0       0       0       0       0       0
      Temps:          1       0       0       0       0       0       0       0       0       0       0       0       0
      Totals:         1       0       0       0       0       0       0       0       0       0       0       0       0
Total ram usage:        1 bytes
 Hardware stack levels used:    1
 Hardware stack levels required when called:    2
 This function calls:
		Nothing
 This function is called by:
		_in_app_vavle_off
 This function uses a non-reentrant model


 *************** function _app_flow_lookup *****************
 Defined at:
		line 71 in file "src/app/flow.c"
 Parameters:    Size  Location     Type
  adcValue        2    3[COMMON] unsigned int 
 Auto vars:     Size  Location     Type
  i               1    5[COMMON] unsigned char 
 Return value:  Size  Location     Type
                  1    wreg      unsigned char 
 Registers used:
		wreg, fsr1l, fsr1h, status,2, status,0
 Tracked objects:
		On entry : 
		On exit  : 
		Unchanged: 
 Data sizes:     COMMON   BANK0   BANK1   BANK2   BANK3   BANK4   BANK5   BANK6   BANK7   BANK8  BANK10  BANK11  BANK12
      Params:         2       0       0       0       0       0       0       0       0       0       0       0       0
      Locals:         1       0       0       0       0       0       0       0       0       0       0       0       0
      Temps:          0      14       0       0       0       0       0       0       0       0       0       0       0
      Totals:         3      14       0       0       0       0       0       0       0       0       0       0       0
Total ram usage:       17 bytes
 Hardware stack levels used:    1
 Hardware stack levels required when called:    2
 This function calls:
		Nothing
 This function is called by:
		_flow_sampling_process
 This function uses a non-reentrant model


 *************** function _app_flow_get_adcAverageValue *****************
 Defined at:
		line 212 in file "src/app/flow.c"
 Parameters:    Size  Location     Type
		None
 Auto vars:     Size  Location     Type
  ret             4   38[BANK0 ] unsigned long 
  max             2   36[BANK0 ] unsigned int 
  min             2   33[BANK0 ] unsigned int 
  i               1   42[BANK0 ] unsigned char 
  j               1   35[BANK0 ] unsigned char 
  minIndex        1   32[BANK0 ] unsigned char 
  maxIndex        1   31[BANK0 ] unsigned char 
 Return value:  Size  Location     Type
                  2   21[BANK0 ] unsigned int 
 Registers used:
		wreg, fsr1l, fsr1h, status,2, status,0, pclath, cstack
 Tracked objects:
		On entry : 
		On exit  : 
		Unchanged: 
 Data sizes:     COMMON   BANK0   BANK1   BANK2   BANK3   BANK4   BANK5   BANK6   BANK7   BANK8  BANK10  BANK11  BANK12
      Params:         0       2       0       0       0       0       0       0       0       0       0       0       0
      Locals:         0      12       0       0       0       0       0       0       0       0       0       0       0
      Temps:          0       8       0       0       0       0       0       0       0       0       0       0       0
      Totals:         0      22       0       0       0       0       0       0       0       0       0       0       0
Total ram usage:       22 bytes
 Hardware stack levels used:    1
 Hardware stack levels required when called:    3
 This function calls:
		___lldiv
 This function is called by:
		_flow_sampling_process
 This function uses a non-reentrant model


 *************** function _app_flow_adc_2_flow *****************
 Defined at:
		line 87 in file "src/app/flow.c"
 Parameters:    Size  Location     Type
  index           1    wreg     unsigned char 
 Auto vars:     Size  Location     Type
  index           1   41[BANK0 ] unsigned char 
  ad1             2   39[BANK0 ] unsigned int 
  flw1            2   37[BANK0 ] unsigned int 
  ad2             2   35[BANK0 ] unsigned int 
  flw2            2   33[BANK0 ] unsigned int 
 Return value:  Size  Location     Type
                  2   21[BANK0 ] unsigned int 
 Registers used:
		wreg, fsr1l, fsr1h, status,2, status,0, pclath, cstack
 Tracked objects:
		On entry : 
		On exit  : 
		Unchanged: 
 Data sizes:     COMMON   BANK0   BANK1   BANK2   BANK3   BANK4   BANK5   BANK6   BANK7   BANK8  BANK10  BANK11  BANK12
      Params:         0       2       0       0       0       0       0       0       0       0       0       0       0
      Locals:         0      13       0       0       0       0       0       0       0       0       0       0       0
      Temps:          0       6       0       0       0       0       0       0       0       0       0       0       0
      Totals:         0      21       0       0       0       0       0       0       0       0       0       0       0
Total ram usage:       21 bytes
 Hardware stack levels used:    1
 Hardware stack levels required when called:    3
 This function calls:
		___lldiv
		___lmul
 This function is called by:
		_flow_sampling_process
 This function uses a non-reentrant model


 *************** function ___lmul *****************
 Defined at:
		line 15 in file "C:\Program Files (x86)\Microchip\xc8\v1.42\sources\common\Umul32.c"
 Parameters:    Size  Location     Type
  multiplier      4    0[BANK0 ] unsigned long 
  multiplicand    4    4[BANK0 ] unsigned long 
 Auto vars:     Size  Location     Type
  product         4    3[COMMON] unsigned long 
 Return value:  Size  Location     Type
                  4    0[BANK0 ] unsigned long 
 Registers used:
		wreg, status,2, status,0
 Tracked objects:
		On entry : 
		On exit  : 
		Unchanged: 
 Data sizes:     COMMON   BANK0   BANK1   BANK2   BANK3   BANK4   BANK5   BANK6   BANK7   BANK8  BANK10  BANK11  BANK12
      Params:         0       8       0       0       0       0       0       0       0       0       0       0       0
      Locals:         4       0       0       0       0       0       0       0       0       0       0       0       0
      Temps:          0       0       0       0       0       0       0       0       0       0       0       0       0
      Totals:         4       8       0       0       0       0       0       0       0       0       0       0       0
Total ram usage:       12 bytes
 Hardware stack levels used:    1
 Hardware stack levels required when called:    2
 This function calls:
		Nothing
 This function is called by:
		_ui_disp_flow
		_app_flow_adc_2_flow
		_m_math_pow
		_app_flow_rt_volume_cal
		_app_flow_rt_volume_cal_ex
		_app_flow_rt_balance_money_cal
		_getRegisterVal
 This function uses a non-reentrant model


 *************** function ___lldiv *****************
 Defined at:
		line 6 in file "C:\Program Files (x86)\Microchip\xc8\v1.42\sources\common\lldiv.c"
 Parameters:    Size  Location     Type
  divisor         4    8[BANK0 ] unsigned long 
  dividend        4   12[BANK0 ] unsigned long 
 Auto vars:     Size  Location     Type
  quotient        4   16[BANK0 ] unsigned long 
  counter         1   20[BANK0 ] unsigned char 
 Return value:  Size  Location     Type
                  4    8[BANK0 ] unsigned long 
 Registers used:
		wreg, status,2, status,0
 Tracked objects:
		On entry : 
		On exit  : 
		Unchanged: 
 Data sizes:     COMMON   BANK0   BANK1   BANK2   BANK3   BANK4   BANK5   BANK6   BANK7   BANK8  BANK10  BANK11  BANK12
      Params:         0       8       0       0       0       0       0       0       0       0       0       0       0
      Locals:         0       5       0       0       0       0       0       0       0       0       0       0       0
      Temps:          1       0       0       0       0       0       0       0       0       0       0       0       0
      Totals:         1      13       0       0       0       0       0       0       0       0       0       0       0
Total ram usage:       14 bytes
 Hardware stack levels used:    1
 Hardware stack levels required when called:    2
 This function calls:
		Nothing
 This function is called by:
		_ui_disp_flow
		_app_flow_adc_2_flow
		_app_flow_rt_volume_cal_ex
		_app_flow_rt_balance_money_cal
		_app_flow_get_adcAverageValue
		_app_flow_rt_volume_cal
		_ui_disp_transfer_money
		_getRegisterVal
 This function uses a non-reentrant model


 *************** function _adc_mcp3241_start_convert_16 *****************
 Defined at:
		line 11 in file "src/driver/adc-mcp3421.c"
 Parameters:    Size  Location     Type
  b               1    wreg     unsigned char 
  g               1    2[BANK0 ] unsigned char 
 Auto vars:     Size  Location     Type
  b               1    4[BANK0 ] unsigned char 
  t8              1    5[BANK0 ] unsigned char 
 Return value:  Size  Location     Type
                  1    wreg      void 
 Registers used:
		wreg, status,2, status,0, pclath, cstack
 Tracked objects:
		On entry : 
		On exit  : 
		Unchanged: 
 Data sizes:     COMMON   BANK0   BANK1   BANK2   BANK3   BANK4   BANK5   BANK6   BANK7   BANK8  BANK10  BANK11  BANK12
      Params:         0       1       0       0       0       0       0       0       0       0       0       0       0
      Locals:         0       2       0       0       0       0       0       0       0       0       0       0       0
      Temps:          0       1       0       0       0       0       0       0       0       0       0       0       0
      Totals:         0       4       0       0       0       0       0       0       0       0       0       0       0
Total ram usage:        4 bytes
 Hardware stack levels used:    1
 Hardware stack levels required when called:    6
 This function calls:
		_iic_send_byte
		_iic_start
		_iic_stop
 This function is called by:
		_flow_sampling_process
 This function uses a non-reentrant model


 *************** function _adc_mcp3241_read_convert_16 *****************
 Defined at:
		line 28 in file "src/driver/adc-mcp3421.c"
 Parameters:    Size  Location     Type
  sta             1    wreg     PTR unsigned char 
		 -> flow_sampling_process@i(1), 
 Auto vars:     Size  Location     Type
  sta             1    6[BANK0 ] PTR unsigned char 
		 -> flow_sampling_process@i(1), 
  t16             2    7[BANK0 ] volatile unsigned int 
 Return value:  Size  Location     Type
                  2    2[BANK0 ] unsigned int 
 Registers used:
		wreg, fsr1l, fsr1h, status,2, status,0, pclath, cstack
 Tracked objects:
		On entry : 
		On exit  : 
		Unchanged: 
 Data sizes:     COMMON   BANK0   BANK1   BANK2   BANK3   BANK4   BANK5   BANK6   BANK7   BANK8  BANK10  BANK11  BANK12
      Params:         0       2       0       0       0       0       0       0       0       0       0       0       0
      Locals:         0       3       0       0       0       0       0       0       0       0       0       0       0
      Temps:          0       2       0       0       0       0       0       0       0       0       0       0       0
      Totals:         0       7       0       0       0       0       0       0       0       0       0       0       0
Total ram usage:        7 bytes
 Hardware stack levels used:    1
 Hardware stack levels required when called:    6
 This function calls:
		_iic_received_byte_if_ack
		_iic_send_byte
		_iic_start
		_iic_stop
 This function is called by:
		_flow_sampling_process
 This function uses a non-reentrant model


 *************** function _iic_start *****************
 Defined at:
		line 29 in file "src/driver/i2c.c"
 Parameters:    Size  Location     Type
		None
 Auto vars:     Size  Location     Type
		None
 Return value:  Size  Location     Type
                  1    wreg      void 
 Registers used:
		wreg, status,2, status,0, pclath, cstack
 Tracked objects:
		On entry : 
		On exit  : 
		Unchanged: 
 Data sizes:     COMMON   BANK0   BANK1   BANK2   BANK3   BANK4   BANK5   BANK6   BANK7   BANK8  BANK10  BANK11  BANK12
      Params:         0       0       0       0       0       0       0       0       0       0       0       0       0
      Locals:         0       0       0       0       0       0       0       0       0       0       0       0       0
      Temps:          0       0       0       0       0       0       0       0       0       0       0       0       0
      Totals:         0       0       0       0       0       0       0       0       0       0       0       0       0
Total ram usage:        0 bytes
 Hardware stack levels used:    1
 Hardware stack levels required when called:    3
 This function calls:
		_delay
 This function is called by:
		_adc_mcp3241_start_convert_16
		_adc_mcp3241_read_convert_16
		_iic_read_byte
		_iic_write_byte
		_iic_write_n_byte
 This function uses a non-reentrant model


 *************** function _iic_send_byte *****************
 Defined at:
		line 91 in file "src/driver/i2c.c"
 Parameters:    Size  Location     Type
  x               1    wreg     unsigned char 
 Auto vars:     Size  Location     Type
  x               1    0[BANK0 ] unsigned char 
  i               1    1[BANK0 ] unsigned char 
 Return value:  Size  Location     Type
                  1    wreg      unsigned char 
 Registers used:
		wreg, status,2, status,0, pclath, cstack
 Tracked objects:
		On entry : 
		On exit  : 
		Unchanged: 
 Data sizes:     COMMON   BANK0   BANK1   BANK2   BANK3   BANK4   BANK5   BANK6   BANK7   BANK8  BANK10  BANK11  BANK12
      Params:         0       0       0       0       0       0       0       0       0       0       0       0       0
      Locals:         0       2       0       0       0       0       0       0       0       0       0       0       0
      Temps:          1       0       0       0       0       0       0       0       0       0       0       0       0
      Totals:         1       2       0       0       0       0       0       0       0       0       0       0       0
Total ram usage:        3 bytes
 Hardware stack levels used:    1
 Hardware stack levels required when called:    5
 This function calls:
		_iic_waite_ack
 This function is called by:
		_adc_mcp3241_start_convert_16
		_adc_mcp3241_read_convert_16
		_iic_read_byte
		_iic_write_byte
		_iic_write_n_byte
 This function uses a non-reentrant model


 *************** function _iic_waite_ack *****************
 Defined at:
		line 70 in file "src/driver/i2c.c"
 Parameters:    Size  Location     Type
		None
 Auto vars:     Size  Location     Type
  timeout         1    6[COMMON] unsigned char 
 Return value:  Size  Location     Type
                  1    wreg      unsigned char 
 Registers used:
		wreg, status,2, status,0, pclath, cstack
 Tracked objects:
		On entry : 
		On exit  : 
		Unchanged: 
 Data sizes:     COMMON   BANK0   BANK1   BANK2   BANK3   BANK4   BANK5   BANK6   BANK7   BANK8  BANK10  BANK11  BANK12
      Params:         0       0       0       0       0       0       0       0       0       0       0       0       0
      Locals:         1       0       0       0       0       0       0       0       0       0       0       0       0
      Temps:          1       0       0       0       0       0       0       0       0       0       0       0       0
      Totals:         2       0       0       0       0       0       0       0       0       0       0       0       0
Total ram usage:        2 bytes
 Hardware stack levels used:    1
 Hardware stack levels required when called:    4
 This function calls:
		_iic_stop
 This function is called by:
		_iic_send_byte
 This function uses a non-reentrant model


 *************** function _iic_stop *****************
 Defined at:
		line 41 in file "src/driver/i2c.c"
 Parameters:    Size  Location     Type
		None
 Auto vars:     Size  Location     Type
		None
 Return value:  Size  Location     Type
                  1    wreg      void 
 Registers used:
		wreg, status,2, status,0, pclath, cstack
 Tracked objects:
		On entry : 
		On exit  : 
		Unchanged: 
 Data sizes:     COMMON   BANK0   BANK1   BANK2   BANK3   BANK4   BANK5   BANK6   BANK7   BANK8  BANK10  BANK11  BANK12
      Params:         0       0       0       0       0       0       0       0       0       0       0       0       0
      Locals:         0       0       0       0       0       0       0       0       0       0       0       0       0
      Temps:          0       0       0       0       0       0       0       0       0       0       0       0       0
      Totals:         0       0       0       0       0       0       0       0       0       0       0       0       0
Total ram usage:        0 bytes
 Hardware stack levels used:    1
 Hardware stack levels required when called:    3
 This function calls:
		_delay
 This function is called by:
		_iic_waite_ack
		_adc_mcp3241_start_convert_16
		_adc_mcp3241_read_convert_16
		_iic_read_byte
		_iic_write_byte
		_iic_write_n_byte
 This function uses a non-reentrant model


 *************** function _delay *****************
 Defined at:
		line 5 in file "src/depend/delay.c"
 Parameters:    Size  Location     Type
  t               2    3[COMMON] unsigned int 
 Auto vars:     Size  Location     Type
		None
 Return value:  Size  Location     Type
                  1    wreg      void 
 Registers used:
		wreg, status,2, status,0
 Tracked objects:
		On entry : 
		On exit  : 
		Unchanged: 
 Data sizes:     COMMON   BANK0   BANK1   BANK2   BANK3   BANK4   BANK5   BANK6   BANK7   BANK8  BANK10  BANK11  BANK12
      Params:         2       0       0       0       0       0       0       0       0       0       0       0       0
      Locals:         0       0       0       0       0       0       0       0       0       0       0       0       0
      Temps:          0       0       0       0       0       0       0       0       0       0       0       0       0
      Totals:         2       0       0       0       0       0       0       0       0       0       0       0       0
Total ram usage:        2 bytes
 Hardware stack levels used:    1
 Hardware stack levels required when called:    2
 This function calls:
		Nothing
 This function is called by:
		_rfid_comm_process
		_key_scan_call
		_iic_start
		_iic_stop
		_mfrc522_hal_init
		_main
		_led_all_test
		_m_system_start_self_test
 This function uses a non-reentrant model


 *************** function _iic_received_byte_if_ack *****************
 Defined at:
		line 133 in file "src/driver/i2c.c"
 Parameters:    Size  Location     Type
  ack             1    wreg     unsigned char 
 Auto vars:     Size  Location     Type
  ack             1    0[BANK0 ] unsigned char 
  ret             1    1[BANK0 ] unsigned char 
 Return value:  Size  Location     Type
                  1    wreg      unsigned char 
 Registers used:
		wreg, status,2, status,0, pclath, cstack
 Tracked objects:
		On entry : 
		On exit  : 
		Unchanged: 
 Data sizes:     COMMON   BANK0   BANK1   BANK2   BANK3   BANK4   BANK5   BANK6   BANK7   BANK8  BANK10  BANK11  BANK12
      Params:         0       0       0       0       0       0       0       0       0       0       0       0       0
      Locals:         0       2       0       0       0       0       0       0       0       0       0       0       0
      Temps:          1       0       0       0       0       0       0       0       0       0       0       0       0
      Totals:         1       2       0       0       0       0       0       0       0       0       0       0       0
Total ram usage:        3 bytes
 Hardware stack levels used:    1
 Hardware stack levels required when called:    3
 This function calls:
		_iic_received_byte
		_iic_send_ack
 This function is called by:
		_adc_mcp3241_read_convert_16
		_iic_read_byte
 This function uses a non-reentrant model


 *************** function _iic_send_ack *****************
 Defined at:
		line 52 in file "src/driver/i2c.c"
 Parameters:    Size  Location     Type
  ack             1    wreg     char 
 Auto vars:     Size  Location     Type
  ack             1    3[COMMON] char 
 Return value:  Size  Location     Type
                  1    wreg      void 
 Registers used:
		wreg, status,2, status,0
 Tracked objects:
		On entry : 
		On exit  : 
		Unchanged: 
 Data sizes:     COMMON   BANK0   BANK1   BANK2   BANK3   BANK4   BANK5   BANK6   BANK7   BANK8  BANK10  BANK11  BANK12
      Params:         0       0       0       0       0       0       0       0       0       0       0       0       0
      Locals:         1       0       0       0       0       0       0       0       0       0       0       0       0
      Temps:          0       0       0       0       0       0       0       0       0       0       0       0       0
      Totals:         1       0       0       0       0       0       0       0       0       0       0       0       0
Total ram usage:        1 bytes
 Hardware stack levels used:    1
 Hardware stack levels required when called:    2
 This function calls:
		Nothing
 This function is called by:
		_iic_received_byte_if_ack
 This function uses a non-reentrant model


 *************** function _iic_received_byte *****************
 Defined at:
		line 114 in file "src/driver/i2c.c"
 Parameters:    Size  Location     Type
		None
 Auto vars:     Size  Location     Type
  i               1    5[COMMON] unsigned char 
  ret             1    4[COMMON] unsigned char 
 Return value:  Size  Location     Type
                  1    wreg      unsigned char 
 Registers used:
		wreg, status,2, status,0
 Tracked objects:
		On entry : 
		On exit  : 
		Unchanged: 
 Data sizes:     COMMON   BANK0   BANK1   BANK2   BANK3   BANK4   BANK5   BANK6   BANK7   BANK8  BANK10  BANK11  BANK12
      Params:         0       0       0       0       0       0       0       0       0       0       0       0       0
      Locals:         2       0       0       0       0       0       0       0       0       0       0       0       0
      Temps:          1       0       0       0       0       0       0       0       0       0       0       0       0
      Totals:         3       0       0       0       0       0       0       0       0       0       0       0       0
Total ram usage:        3 bytes
 Hardware stack levels used:    1
 Hardware stack levels required when called:    2
 This function calls:
		Nothing
 This function is called by:
		_iic_received_byte_if_ack
 This function uses a non-reentrant model


 *************** function _event_power_monitor *****************
 Defined at:
		line 34 in file "main.c"
 Parameters:    Size  Location     Type
		None
 Auto vars:     Size  Location     Type
		None
 Return value:  Size  Location     Type
                  1    wreg      void 
 Registers used:
		status,2
 Tracked objects:
		On entry : 
		On exit  : 
		Unchanged: 
 Data sizes:     COMMON   BANK0   BANK1   BANK2   BANK3   BANK4   BANK5   BANK6   BANK7   BANK8  BANK10  BANK11  BANK12
      Params:         0       0       0       0       0       0       0       0       0       0       0       0       0
      Locals:         0       0       0       0       0       0       0       0       0       0       0       0       0
      Temps:          0       0       0       0       0       0       0       0       0       0       0       0       0
      Totals:         0       0       0       0       0       0       0       0       0       0       0       0       0
Total ram usage:        0 bytes
 Hardware stack levels used:    1
 Hardware stack levels required when called:    2
 This function calls:
		Nothing
 This function is called by:
		_main
 This function uses a non-reentrant model


 *************** function _event_door_monitor *****************
 Defined at:
		line 50 in file "main.c"
 Parameters:    Size  Location     Type
		None
 Auto vars:     Size  Location     Type
		None
 Return value:  Size  Location     Type
                  1    wreg      void 
 Registers used:
		None
 Tracked objects:
		On entry : 
		On exit  : 
		Unchanged: 
 Data sizes:     COMMON   BANK0   BANK1   BANK2   BANK3   BANK4   BANK5   BANK6   BANK7   BANK8  BANK10  BANK11  BANK12
      Params:         0       0       0       0       0       0       0       0       0       0       0       0       0
      Locals:         0       0       0       0       0       0       0       0       0       0       0       0       0
      Temps:          0       0       0       0       0       0       0       0       0       0       0       0       0
      Totals:         0       0       0       0       0       0       0       0       0       0       0       0       0
Total ram usage:        0 bytes
 Hardware stack levels used:    1
 Hardware stack levels required when called:    2
 This function calls:
		Nothing
 This function is called by:
		_main
 This function uses a non-reentrant model


 *************** function _data_api_system_data_init *****************
 Defined at:
		line 128 in file "src/app/appdata.c"
 Parameters:    Size  Location     Type
		None
 Auto vars:     Size  Location     Type
  sta             1   20[BANK0 ] unsigned char 
 Return value:  Size  Location     Type
                  1    wreg      unsigned char 
 Registers used:
		wreg, fsr1l, fsr1h, status,2, status,0, pclath, cstack
 Tracked objects:
		On entry : 
		On exit  : 
		Unchanged: 
 Data sizes:     COMMON   BANK0   BANK1   BANK2   BANK3   BANK4   BANK5   BANK6   BANK7   BANK8  BANK10  BANK11  BANK12
      Params:         0       0       0       0       0       0       0       0       0       0       0       0       0
      Locals:         0       1       0       0       0       0       0       0       0       0       0       0       0
      Temps:          0       1       0       0       0       0       0       0       0       0       0       0       0
      Totals:         0       2       0       0       0       0       0       0       0       0       0       0       0
Total ram usage:        2 bytes
 Hardware stack levels used:    1
 Hardware stack levels required when called:    4
 This function calls:
		_crc_append
		_crc_verify
		_data_api_read_eeprom
		_data_api_system_data_get
		_data_api_write_eeprom
		_m_mem_cpy_len
 This function is called by:
		_main
 This function uses a non-reentrant model


 *************** function _data_api_system_data_get *****************
 Defined at:
		line 58 in file "src/app/appdata.c"
 Parameters:    Size  Location     Type
		None
 Auto vars:     Size  Location     Type
		None
 Return value:  Size  Location     Type
                  1    wreg      void 
 Registers used:
		wreg, fsr1l, fsr1h, status,2, status,0
 Tracked objects:
		On entry : 
		On exit  : 
		Unchanged: 
 Data sizes:     COMMON   BANK0   BANK1   BANK2   BANK3   BANK4   BANK5   BANK6   BANK7   BANK8  BANK10  BANK11  BANK12
      Params:         0       0       0       0       0       0       0       0       0       0       0       0       0
      Locals:         0       0       0       0       0       0       0       0       0       0       0       0       0
      Temps:          1       0       0       0       0       0       0       0       0       0       0       0       0
      Totals:         1       0       0       0       0       0       0       0       0       0       0       0       0
Total ram usage:        1 bytes
 Hardware stack levels used:    1
 Hardware stack levels required when called:    2
 This function calls:
		Nothing
 This function is called by:
		_data_api_system_data_init
		_data_api_rt_data_save
 This function uses a non-reentrant model


 *************** function _data_api_calibration_table_data_init *****************
 Defined at:
		line 89 in file "src/app/appdata.c"
 Parameters:    Size  Location     Type
		None
 Auto vars:     Size  Location     Type
  stp             2   26[BANK0 ] PTR struct .
		 -> comBuffer(128), 
  i               1   28[BANK0 ] unsigned char 
  sta             1   25[BANK0 ] unsigned char 
 Return value:  Size  Location     Type
                  1    wreg      unsigned char 
 Registers used:
		wreg, fsr0l, fsr0h, fsr1l, fsr1h, status,2, status,0, pclath, cstack
 Tracked objects:
		On entry : 
		On exit  : 
		Unchanged: 
 Data sizes:     COMMON   BANK0   BANK1   BANK2   BANK3   BANK4   BANK5   BANK6   BANK7   BANK8  BANK10  BANK11  BANK12
      Params:         0       0       0       0       0       0       0       0       0       0       0       0       0
      Locals:         0       4       0       0       0       0       0       0       0       0       0       0       0
      Temps:          0       6       0       0       0       0       0       0       0       0       0       0       0
      Totals:         0      10       0       0       0       0       0       0       0       0       0       0       0
Total ram usage:       10 bytes
 Hardware stack levels used:    1
 Hardware stack levels required when called:    4
 This function calls:
		___wmul
		_crc_append
		_crc_verify
		_data_api_read_eeprom
		_data_api_write_eeprom
		_m_mem_cpy_len
 This function is called by:
		_main
 This function uses a non-reentrant model


 *************** function _data_api_write_eeprom *****************
 Defined at:
		line 65 in file "src/app/appdata.c"
 Parameters:    Size  Location     Type
  buf             2    0[BANK0 ] PTR unsigned char 
		 -> comBuffer(128), mainSystemData(72), 
  addr            1    2[BANK0 ] unsigned char 
  len             1    3[BANK0 ] unsigned char 
 Auto vars:     Size  Location     Type
  i               1    7[COMMON] unsigned char 
 Return value:  Size  Location     Type
                  1    wreg      void 
 Registers used:
		wreg, fsr1l, fsr1h, status,2, status,0, pclath, cstack
 Tracked objects:
		On entry : 
		On exit  : 
		Unchanged: 
 Data sizes:     COMMON   BANK0   BANK1   BANK2   BANK3   BANK4   BANK5   BANK6   BANK7   BANK8  BANK10  BANK11  BANK12
      Params:         0       4       0       0       0       0       0       0       0       0       0       0       0
      Locals:         1       0       0       0       0       0       0       0       0       0       0       0       0
      Temps:          1       0       0       0       0       0       0       0       0       0       0       0       0
      Totals:         2       4       0       0       0       0       0       0       0       0       0       0       0
Total ram usage:        6 bytes
 Hardware stack levels used:    1
 Hardware stack levels required when called:    3
 This function calls:
		_DATAEE_WriteByte
 This function is called by:
		_data_api_calibration_table_data_init
		_data_api_system_data_init
		_data_api_rt_data_save
		_data_api_calibration_table_data_save
 This function uses a non-reentrant model


 *************** function _DATAEE_WriteByte *****************
 Defined at:
		line 180 in file "mcc_generated_files/memory.c"
 Parameters:    Size  Location     Type
  bAdd            1    wreg     unsigned char 
  bData           1    3[COMMON] unsigned char 
 Auto vars:     Size  Location     Type
  bAdd            1    4[COMMON] unsigned char 
  GIEBitValue     1    5[COMMON] unsigned char 
 Return value:  Size  Location     Type
                  1    wreg      void 
 Registers used:
		wreg, status,2, status,0
 Tracked objects:
		On entry : 
		On exit  : 
		Unchanged: 
 Data sizes:     COMMON   BANK0   BANK1   BANK2   BANK3   BANK4   BANK5   BANK6   BANK7   BANK8  BANK10  BANK11  BANK12
      Params:         1       0       0       0       0       0       0       0       0       0       0       0       0
      Locals:         2       0       0       0       0       0       0       0       0       0       0       0       0
      Temps:          0       0       0       0       0       0       0       0       0       0       0       0       0
      Totals:         3       0       0       0       0       0       0       0       0       0       0       0       0
Total ram usage:        3 bytes
 Hardware stack levels used:    1
 Hardware stack levels required when called:    2
 This function calls:
		Nothing
 This function is called by:
		_data_api_write_eeprom
		_data_api_write_eeprom_clr
 This function uses a non-reentrant model


 *************** function _data_api_read_eeprom *****************
 Defined at:
		line 81 in file "src/app/appdata.c"
 Parameters:    Size  Location     Type
  buf             2    4[COMMON] PTR unsigned char 
		 -> comBuffer(128), uart1Buffer(80), 
  addr            1    6[COMMON] unsigned char 
  len             1    7[COMMON] unsigned char 
 Auto vars:     Size  Location     Type
  i               1    1[BANK0 ] unsigned char 
 Return value:  Size  Location     Type
                  1    wreg      void 
 Registers used:
		wreg, fsr1l, fsr1h, status,2, status,0, pclath, cstack
 Tracked objects:
		On entry : 
		On exit  : 
		Unchanged: 
 Data sizes:     COMMON   BANK0   BANK1   BANK2   BANK3   BANK4   BANK5   BANK6   BANK7   BANK8  BANK10  BANK11  BANK12
      Params:         4       0       0       0       0       0       0       0       0       0       0       0       0
      Locals:         0       1       0       0       0       0       0       0       0       0       0       0       0
      Temps:          0       1       0       0       0       0       0       0       0       0       0       0       0
      Totals:         4       2       0       0       0       0       0       0       0       0       0       0       0
Total ram usage:        6 bytes
 Hardware stack levels used:    1
 Hardware stack levels required when called:    3
 This function calls:
		_DATAEE_ReadByte
 This function is called by:
		_modbus_response_read_clib_data
		_data_api_calibration_table_data_init
		_data_api_system_data_init
 This function uses a non-reentrant model


 *************** function _DATAEE_ReadByte *****************
 Defined at:
		line 204 in file "mcc_generated_files/memory.c"
 Parameters:    Size  Location     Type
  bAdd            1    wreg     unsigned char 
 Auto vars:     Size  Location     Type
  bAdd            1    3[COMMON] unsigned char 
 Return value:  Size  Location     Type
                  1    wreg      unsigned char 
 Registers used:
		wreg
 Tracked objects:
		On entry : 
		On exit  : 
		Unchanged: 
 Data sizes:     COMMON   BANK0   BANK1   BANK2   BANK3   BANK4   BANK5   BANK6   BANK7   BANK8  BANK10  BANK11  BANK12
      Params:         0       0       0       0       0       0       0       0       0       0       0       0       0
      Locals:         1       0       0       0       0       0       0       0       0       0       0       0       0
      Temps:          0       0       0       0       0       0       0       0       0       0       0       0       0
      Totals:         1       0       0       0       0       0       0       0       0       0       0       0       0
Total ram usage:        1 bytes
 Hardware stack levels used:    1
 Hardware stack levels required when called:    2
 This function calls:
		Nothing
 This function is called by:
		_data_api_read_eeprom
 This function uses a non-reentrant model


 *************** function _crc_verify *****************
 Defined at:
		line 99 in file "src/protocol/crc16_sf.c"
 Parameters:    Size  Location     Type
  message         2    8[BANK0 ] PTR unsigned char 
		 -> cardDecBuf(18), cardIncBuf(18), comBuffer(128), Main_flowCalibrationTable(124), 
		 -> uart1Buffer(80), 
  n               2   10[BANK0 ] unsigned int 
 Auto vars:     Size  Location     Type
  expected        2   17[BANK0 ] unsigned int 
  crccal          2   15[BANK0 ] unsigned int 
 Return value:  Size  Location     Type
                  1    wreg      unsigned char 
 Registers used:
		wreg, fsr1l, fsr1h, status,2, status,0, pclath, cstack
 Tracked objects:
		On entry : 
		On exit  : 
		Unchanged: 
 Data sizes:     COMMON   BANK0   BANK1   BANK2   BANK3   BANK4   BANK5   BANK6   BANK7   BANK8  BANK10  BANK11  BANK12
      Params:         0       4       0       0       0       0       0       0       0       0       0       0       0
      Locals:         0       4       0       0       0       0       0       0       0       0       0       0       0
      Temps:          0       3       0       0       0       0       0       0       0       0       0       0       0
      Totals:         0      11       0       0       0       0       0       0       0       0       0       0       0
Total ram usage:       11 bytes
 Hardware stack levels used:    1
 Hardware stack levels required when called:    3
 This function calls:
		_crc_sum
		_m_mem_cpy_len
 This function is called by:
		_modbus_response_process
		_data_api_calibration_table_data_init
		_data_api_system_data_init
		_data_api_calibration_table_data_save
		_rfid_comm_process_read_header
		_rfid_comm_process_read_inc
		_rfid_comm_process_read_dec
 This function uses a non-reentrant model


 *************** function _m_mem_cpy_len *****************
 Defined at:
		line 41 in file "src/depend/m_string.c"
 Parameters:    Size  Location     Type
  d               2    3[COMMON] PTR unsigned char 
		 -> crc_verify@expected(2), pcd_mifare_transceive@cmdBuffer(18), LCDDATA0(1), cardWriteBuf(18), 
		 -> comBuffer(128), Main_flowCalibrationTable(124), flashOpStr(21), uiAdjbuf(8), 
		 -> mainSystemData(72), 
  s               2    5[COMMON] PTR unsigned char 
		 -> mifare_write@cmdBuffer(2), mifare_two_Step_helper@data(4), mifare_two_Step_helper@cmdBuffer(2), pLCD(24), 
		 -> cardDecBuf(18), cardIncBuf(18), cardWriteBuf(18), cardUidBlockBuf(18), 
		 -> comBuffer(128), Main_flowCalibrationTable(124), flashOpStr(21), uiAdjbuf(8), 
		 -> mainSystemData(72), uart1Buffer(80), 
  len             1    7[COMMON] unsigned char 
 Auto vars:     Size  Location     Type
		None
 Return value:  Size  Location     Type
                  1    wreg      void 
 Registers used:
		wreg, fsr1l, fsr1h, status,2, status,0
 Tracked objects:
		On entry : 
		On exit  : 
		Unchanged: 
 Data sizes:     COMMON   BANK0   BANK1   BANK2   BANK3   BANK4   BANK5   BANK6   BANK7   BANK8  BANK10  BANK11  BANK12
      Params:         5       0       0       0       0       0       0       0       0       0       0       0       0
      Locals:         0       0       0       0       0       0       0       0       0       0       0       0       0
      Temps:          0       1       0       0       0       0       0       0       0       0       0       0       0
      Totals:         5       1       0       0       0       0       0       0       0       0       0       0       0
Total ram usage:        6 bytes
 Hardware stack levels used:    1
 Hardware stack levels required when called:    2
 This function calls:
		Nothing
 This function is called by:
		_ui_key_process_enter
		_ui_key_set_process
		_data_api_calibration_table_data_init
		_data_api_system_data_init
		_data_api_rt_data_save
		_data_api_calibration_table_data_save
		_rfid_comm_process_read_header
		_rfid_comm_process_recharge
		_lcd_disp_refresh
		_pcd_mifare_transceive
		_crc_verify
 This function uses a non-reentrant model


 *************** function _crc_append *****************
 Defined at:
		line 109 in file "src/protocol/crc16_sf.c"
 Parameters:    Size  Location     Type
  message         2    8[BANK0 ] PTR unsigned char 
		 -> cardDecBuf(18), comBuffer(128), mainSystemData(72), uart1Buffer(80), 
  n               2   10[BANK0 ] unsigned int 
 Auto vars:     Size  Location     Type
  crc             2   17[BANK0 ] unsigned int 
 Return value:  Size  Location     Type
                  1    wreg      void 
 Registers used:
		wreg, fsr1l, fsr1h, status,2, status,0, pclath, cstack
 Tracked objects:
		On entry : 
		On exit  : 
		Unchanged: 
 Data sizes:     COMMON   BANK0   BANK1   BANK2   BANK3   BANK4   BANK5   BANK6   BANK7   BANK8  BANK10  BANK11  BANK12
      Params:         0       4       0       0       0       0       0       0       0       0       0       0       0
      Locals:         0       2       0       0       0       0       0       0       0       0       0       0       0
      Temps:          0       5       0       0       0       0       0       0       0       0       0       0       0
      Totals:         0      11       0       0       0       0       0       0       0       0       0       0       0
Total ram usage:       11 bytes
 Hardware stack levels used:    1
 Hardware stack levels required when called:    3
 This function calls:
		_crc_sum
 This function is called by:
		_modbus_response_illgeal_function
		_modbus_response_write_single_register
		_modbus_response_command
		_modbus_response_write_clib_data
		_modbus_response_read_clib_data
		_data_api_calibration_table_data_init
		_data_api_system_data_init
		_data_api_rt_data_save
		_data_api_calibration_table_data_save
		_rfid_comm_process_read_header
		_rfid_comm_process_recharge
 This function uses a non-reentrant model


 *************** function _crc_sum *****************
 Defined at:
		line 80 in file "src/protocol/crc16_sf.c"
 Parameters:    Size  Location     Type
  buf             2    3[COMMON] PTR unsigned char 
		 -> cardDecBuf(18), cardIncBuf(18), comBuffer(128), Main_flowCalibrationTable(124), 
		 -> mainSystemData(72), uart1Buffer(80), 
  len             2    5[COMMON] unsigned int 
 Auto vars:     Size  Location     Type
  crc             2    6[BANK0 ] unsigned int 
  i               2    4[BANK0 ] unsigned int 
  j               2    2[BANK0 ] unsigned int 
 Return value:  Size  Location     Type
                  2    3[COMMON] unsigned int 
 Registers used:
		wreg, fsr1l, fsr1h, status,2, status,0
 Tracked objects:
		On entry : 
		On exit  : 
		Unchanged: 
 Data sizes:     COMMON   BANK0   BANK1   BANK2   BANK3   BANK4   BANK5   BANK6   BANK7   BANK8  BANK10  BANK11  BANK12
      Params:         4       0       0       0       0       0       0       0       0       0       0       0       0
      Locals:         0       6       0       0       0       0       0       0       0       0       0       0       0
      Temps:          0       2       0       0       0       0       0       0       0       0       0       0       0
      Totals:         4       8       0       0       0       0       0       0       0       0       0       0       0
Total ram usage:       12 bytes
 Hardware stack levels used:    1
 Hardware stack levels required when called:    2
 This function calls:
		Nothing
 This function is called by:
		_crc_verify
		_crc_append
 This function uses a non-reentrant model


 *************** function ___wmul *****************
 Defined at:
		line 15 in file "C:\Program Files (x86)\Microchip\xc8\v1.42\sources\common\Umul16.c"
 Parameters:    Size  Location     Type
  multiplier      2    3[COMMON] unsigned int 
  multiplicand    2    5[COMMON] unsigned int 
 Auto vars:     Size  Location     Type
  product         2    0[BANK0 ] unsigned int 
 Return value:  Size  Location     Type
                  2    3[COMMON] unsigned int 
 Registers used:
		wreg, status,2, status,0
 Tracked objects:
		On entry : 
		On exit  : 
		Unchanged: 
 Data sizes:     COMMON   BANK0   BANK1   BANK2   BANK3   BANK4   BANK5   BANK6   BANK7   BANK8  BANK10  BANK11  BANK12
      Params:         4       0       0       0       0       0       0       0       0       0       0       0       0
      Locals:         0       2       0       0       0       0       0       0       0       0       0       0       0
      Temps:          0       0       0       0       0       0       0       0       0       0       0       0       0
      Totals:         4       2       0       0       0       0       0       0       0       0       0       0       0
Total ram usage:        6 bytes
 Hardware stack levels used:    1
 Hardware stack levels required when called:    2
 This function calls:
		Nothing
 This function is called by:
		_data_api_calibration_table_data_init
		_ui_key_process_cancel
		_ui_key_set_process
 This function uses a non-reentrant model


 *************** function _INTERRUPT_InterruptManager *****************
 Defined at:
		line 51 in file "mcc_generated_files/interrupt_manager.c"
 Parameters:    Size  Location     Type
		None
 Auto vars:     Size  Location     Type
		None
 Return value:  Size  Location     Type
                  1    wreg      void 
 Registers used:
		wreg, fsr1l, fsr1h, status,2, status,0, pclath, cstack
 Tracked objects:
		On entry : 
		On exit  : 
		Unchanged: 
 Data sizes:     COMMON   BANK0   BANK1   BANK2   BANK3   BANK4   BANK5   BANK6   BANK7   BANK8  BANK10  BANK11  BANK12
      Params:         0       0       0       0       0       0       0       0       0       0       0       0       0
      Locals:         0       0       0       0       0       0       0       0       0       0       0       0       0
      Temps:          1       0       0       0       0       0       0       0       0       0       0       0       0
      Totals:         1       0       0       0       0       0       0       0       0       0       0       0       0
Total ram usage:        1 bytes
 Hardware stack levels used:    1
 Hardware stack levels required when called:    1
 This function calls:
		_EUSART1_Receive_ISR
		_EUSART1_Transmit_ISR
		_TMR0_ISR
		_TMR1_ISR
 This function is called by:
		Interrupt level 1
 This function uses a non-reentrant model


 *************** function _TMR1_ISR *****************
 Defined at:
		line 156 in file "mcc_generated_files/tmr1.c"
 Parameters:    Size  Location     Type
		None
 Auto vars:     Size  Location     Type
		None
 Return value:  Size  Location     Type
                  1    wreg      void 
 Registers used:
		wreg, status,2, status,0
 Tracked objects:
		On entry : 
		On exit  : 
		Unchanged: 
 Data sizes:     COMMON   BANK0   BANK1   BANK2   BANK3   BANK4   BANK5   BANK6   BANK7   BANK8  BANK10  BANK11  BANK12
      Params:         0       0       0       0       0       0       0       0       0       0       0       0       0
      Locals:         0       0       0       0       0       0       0       0       0       0       0       0       0
      Temps:          1       0       0       0       0       0       0       0       0       0       0       0       0
      Totals:         1       0       0       0       0       0       0       0       0       0       0       0       0
Total ram usage:        1 bytes
 Hardware stack levels used:    1
 This function calls:
		Nothing
 This function is called by:
		_INTERRUPT_InterruptManager
 This function uses a non-reentrant model


 *************** function _TMR0_ISR *****************
 Defined at:
		line 111 in file "mcc_generated_files/tmr0.c"
 Parameters:    Size  Location     Type
		None
 Auto vars:     Size  Location     Type
		None
 Return value:  Size  Location     Type
                  1    wreg      void 
 Registers used:
		wreg, status,2, status,0
 Tracked objects:
		On entry : 
		On exit  : 
		Unchanged: 
 Data sizes:     COMMON   BANK0   BANK1   BANK2   BANK3   BANK4   BANK5   BANK6   BANK7   BANK8  BANK10  BANK11  BANK12
      Params:         0       0       0       0       0       0       0       0       0       0       0       0       0
      Locals:         0       0       0       0       0       0       0       0       0       0       0       0       0
      Temps:          1       0       0       0       0       0       0       0       0       0       0       0       0
      Totals:         1       0       0       0       0       0       0       0       0       0       0       0       0
Total ram usage:        1 bytes
 Hardware stack levels used:    1
 This function calls:
		Nothing
 This function is called by:
		_INTERRUPT_InterruptManager
 This function uses a non-reentrant model


 *************** function _EUSART1_Transmit_ISR *****************
 Defined at:
		line 32 in file "mcc_generated_files/eusart1.c"
 Parameters:    Size  Location     Type
		None
 Auto vars:     Size  Location     Type
		None
 Return value:  Size  Location     Type
                  1    wreg      void 
 Registers used:
		None
 Tracked objects:
		On entry : 
		On exit  : 
		Unchanged: 
 Data sizes:     COMMON   BANK0   BANK1   BANK2   BANK3   BANK4   BANK5   BANK6   BANK7   BANK8  BANK10  BANK11  BANK12
      Params:         0       0       0       0       0       0       0       0       0       0       0       0       0
      Locals:         0       0       0       0       0       0       0       0       0       0       0       0       0
      Temps:          0       0       0       0       0       0       0       0       0       0       0       0       0
      Totals:         0       0       0       0       0       0       0       0       0       0       0       0       0
Total ram usage:        0 bytes
 Hardware stack levels used:    1
 This function calls:
		Nothing
 This function is called by:
		_INTERRUPT_InterruptManager
 This function uses a non-reentrant model


 *************** function _EUSART1_Receive_ISR *****************
 Defined at:
		line 111 in file "mcc_generated_files/eusart1.c"
 Parameters:    Size  Location     Type
		None
 Auto vars:     Size  Location     Type
  t8              1    1[COMMON] unsigned char 
 Return value:  Size  Location     Type
                  1    wreg      void 
 Registers used:
		wreg, fsr1l, fsr1h, status,2, status,0
 Tracked objects:
		On entry : 
		On exit  : 
		Unchanged: 
 Data sizes:     COMMON   BANK0   BANK1   BANK2   BANK3   BANK4   BANK5   BANK6   BANK7   BANK8  BANK10  BANK11  BANK12
      Params:         0       0       0       0       0       0       0       0       0       0       0       0       0
      Locals:         1       0       0       0       0       0       0       0       0       0       0       0       0
      Temps:          1       0       0       0       0       0       0       0       0       0       0       0       0
      Totals:         2       0       0       0       0       0       0       0       0       0       0       0       0
Total ram usage:        2 bytes
 Hardware stack levels used:    1
 This function calls:
		Nothing
 This function is called by:
		_INTERRUPT_InterruptManager
 This function uses a non-reentrant model



MODULE INFORMATION

Module		Function		Class		Link	Load	Size
src/nfc/pal/mfrc522_mifare.c
		_pcd_mifare_transceive		CODE           	2095	0000	131
		_mifare_read   		CODE           	2ABB	0000	84
		_mifare_write  		CODE           	285A	0000	72

src/nfc/pal/mfrc522_mifare.c estimated size: 287

src/driver/i2c.c
		_iic_waite_ack 		CODE           	3068	0000	42
		_iic_send_ack  		CODE           	3E0A	0000	29
		_iic_send_byte 		CODE           	3309	0000	49
		_iic_start     		CODE           	3CF7	0000	24
		_iic_received_byte		CODE           	303F	0000	42
		_iic_received_byte_if_ack		CODE           	3BD2	0000	17
		_iic_stop      		CODE           	3CE1	0000	23

src/driver/i2c.c estimated size: 226

src/nfc/bal/mfrc522_bal.c
		_mfrc522_bal_write_reg_len		CODE           	3F66	0000	39
		_mfrc522_bal_write_reg		CODE           	3BF2	0000	18
		_mfrc522_bal_write_read_via_spi		CODE           	0800	0000	35
		_mfrc522_bal_read_fifo_len_ex		CODE           	3738	0000	67
		_mfrc522_bal_read_reg		CODE           	3D85	0000	26
		_mfrc522_bal_clr_bit_reg		CODE           	3D0E	0000	24
		_mfrc522_bal_set_bit_reg		CODE           	3D25	0000	24

src/nfc/bal/mfrc522_bal.c estimated size: 233

C:\Program Files (x86)\Microchip\xc8\v1.42\sources\common\lwdiv.c
		___lwdiv       		CODE           	3525	0000	54

C:\Program Files (x86)\Microchip\xc8\v1.42\sources\common\lwdiv.c estimated size: 54

C:\Program Files (x86)\Microchip\xc8\v1.42\sources\common\awdiv.c
		___awdiv       		CODE           	2A16	0000	83

C:\Program Files (x86)\Microchip\xc8\v1.42\sources\common\awdiv.c estimated size: 83

C:\Program Files (x86)\Microchip\xc8\v1.42\sources\common\lbmod.c
		___lbmod       		CODE           	3EBA	0000	33

C:\Program Files (x86)\Microchip\xc8\v1.42\sources\common\lbmod.c estimated size: 33

C:\Program Files (x86)\Microchip\xc8\v1.42\sources\common\Umul32.c
		___lmul        		CODE           	3369	0000	49

C:\Program Files (x86)\Microchip\xc8\v1.42\sources\common\Umul32.c estimated size: 49

src/depend/delay.c
		_delay         		CODE           	3B89	0000	15

src/depend/delay.c estimated size: 15

C:\Program Files (x86)\Microchip\xc8\v1.42\sources\common\lldiv.c
		___lldiv       		CODE           	2A68	0000	84

C:\Program Files (x86)\Microchip\xc8\v1.42\sources\common\lldiv.c estimated size: 84

C:\Program Files (x86)\Microchip\xc8\v1.42\sources\common\aldiv.c
		___aldiv       		CODE           	2013	0000	131

C:\Program Files (x86)\Microchip\xc8\v1.42\sources\common\aldiv.c estimated size: 131

mcc_generated_files/interrupt_manager.c
		_INTERRUPT_InterruptManager		CODE           	0004	0000	52

mcc_generated_files/interrupt_manager.c estimated size: 52

src/app/appdata.c
		_data_api_system_data_init		CODE           	2978	0000	78
		_data_api_write_eeprom		CODE           	3EDA	0000	34
		_data_api_system_data_get		CODE           	3CA4	0000	21
		_data_api_calibration_table_data_init		CODE           	1C72	0000	215
		_data_api_read_eeprom		CODE           	3E9B	0000	32
		_data_api_calibration_table_data_save		CODE           	12FB	0000	387
		_data_api_flash_process		CODE           	3DD4	0000	28
		_data_api_rt_data_save		CODE           	187F	0000	189

src/app/appdata.c estimated size: 984

src/driver/key.c
		_key_scan_call 		CODE           	3FD9	0000	40

src/driver/key.c estimated size: 40

C:\Program Files (x86)\Microchip\xc8\v1.42\sources\common\Umul8.c
		___bmul        		CODE           	3C5A	0000	19

C:\Program Files (x86)\Microchip\xc8\v1.42\sources\common\Umul8.c estimated size: 19

src/api/ui_key.c
		_ui_key_set_process		CODE           	1630	0000	465
		_ui_key_process_enter		CODE           	0822	0000	303
		_ui_key_process_up_down_main		CODE           	2000	0000	20
		_key_process_up_down_variable_speed_ex		CODE           	1B9D	0000	214
		_ui_key_process_cancel		CODE           	11D0	0000	300
		_ui_key_process		CODE           	2E96	0000	120
		_ui_key_process_down		CODE           	23F1	0000	160
		_ui_key_process_up_down		CODE           	1E21	0000	231
		_ui_key_waite_up		CODE           	342B	0000	50
		_ui_key_waite_up_ex		CODE           	34BE	0000	51

src/api/ui_key.c estimated size: 1914

mcc_generated_files/tmr0.c
		_TMR0_SetInterruptHandler		CODE           	3AF7	0000	7
		_TMR0_ISR      		CODE           	3602	0000	59
		_TMR0_Initialize		CODE           	07EA	0000	23

mcc_generated_files/tmr0.c estimated size: 89

src/app/flow.c
		_app_flow_money_off		CODE           	30E6	0000	44
		_app_flow_lookup		CODE           	2357	0000	155
		_app_flow_rt_balance_money_cal		CODE           	222A	0000	149
		_app_flow_adc_2_flow		CODE           	03BD	0000	744
		_in_app_vavle_off		CODE           	30BB	0000	44
		_app_flow_money_warning		CODE           	3FB2	0000	40
		_flow_sampling_process		CODE           	2F86	0000	123
		_app_flow_get_adcAverageValue		CODE           	10CA	0000	263
		_in_app_vavle_on		CODE           	3F1D	0000	37
		_app_flow_rt_volume_cal_ex		CODE           	19FD	0000	209

src/app/flow.c estimated size: 1808

src/nfc/pal/mfrc522_picc.c
		_picc_req_a_or_wakeup_a		CODE           	29C5	0000	82
		_picc_halt_a   		CODE           	3591	0000	57
		_picc_stop_cryptol		CODE           	3B23	0000	10
		_pcd_comm_with_picc		CODE           	06A4	0000	327
		_picc_select   		CODE           	00A0	0000	798
		_picc_authenticate		CODE           	2C77	0000	102

src/nfc/pal/mfrc522_picc.c estimated size: 1376

src/driver/timer.c
		_get_globle_ticker		CODE           	3B97	0000	15
		_set_globle_ticker		CODE           	3B2C	0000	11
		_timer0_irq_callback		CODE           	32DB	0000	47
		_timer1_irq_callback		CODE           	2BBE	0000	91

src/driver/timer.c estimated size: 164

mcc_generated_files/pin_manager.c
		_PIN_MANAGER_Initialize		CODE           	34F0	0000	54

mcc_generated_files/pin_manager.c estimated size: 54

src/driver/adc-mcp3421.c
		_adc_mcp3241_read_convert_16		CODE           	35C9	0000	58
		_adc_mcp3241_start_convert_16		CODE           	3339	0000	49

src/driver/adc-mcp3421.c estimated size: 107

src/nfc/apl/mfrc522_apl.c
		_mfapi_pcd_init		CODE           	3B36	0000	12
		_mfapi_is_new_card_present		CODE           	33FA	0000	50

src/nfc/apl/mfrc522_apl.c estimated size: 62

src/driver/lcd.c
		_lcd_disp_dp   		CODE           	2CDC	0000	103
		_lcd_disp_all  		CODE           	3E60	0000	30
		_lcd_disp_cln  		CODE           	3DEF	0000	28
		_lcd_disp_str  		CODE           	28E8	0000	73
		_lcd_disp_code 		CODE           	3111	0000	46
		_lcd_disp_refresh		CODE           	3C03	0000	18
		_lcd_clear_buffer		CODE           	3B58	0000	13
		_lcd_disp_code_0		CODE           	316B	0000	47
		_lcd_disp_code_1		CODE           	3199	0000	47
		_lcd_disp_code_2		CODE           	31C7	0000	47
		_lcd_disp_code_3		CODE           	31F5	0000	47
		_lcd_disp_code_4		CODE           	3223	0000	47
		_lcd_disp_code_5		CODE           	3251	0000	47
		_lcd_disp_code_6		CODE           	327F	0000	47
		_lcd_disp_code_7		CODE           	32AD	0000	47
		_lcd_set_com_seg		CODE           	1802	0000	126
		_lcd_config    		CODE           	3EFB	0000	35
		_lcd_init      		CODE           	3AEC	0000	6

src/driver/lcd.c estimated size: 854

src/protocol/crc16_sf.c
		_crc_sum       		CODE           	2B0E	0000	87
		_crc_append    		CODE           	33C9	0000	50
		_crc_verify    		CODE           	355A	0000	56

src/protocol/crc16_sf.c estimated size: 193

src/driver/other-gpio.c
		_other_gpio_port_init		CODE           	3B7C	0000	14
		_valve_stop    		CODE           	3C7E	0000	20
		_valve_on      		CODE           	3B09	0000	9
		_valve_off     		CODE           	3D3C	0000	25

src/driver/other-gpio.c estimated size: 68

src/depend/m_string.c
		_m_mem_set     		CODE           	3BE2	0000	17
		_m_mem_cpy_len 		CODE           	3D9E	0000	28
		_m_math_pow    		CODE           	36F9	0000	64

src/depend/m_string.c estimated size: 109

shared
		_defaultKeyA   		STRCODE        	3925	0000	7
		_LCDDigitalIndexTable		STRCODE        	3800	0000	42
		_LCDDigitalTable		STRCODE        	3829	0000	41
		_hexTable      		STRCODE        	3869	0000	18
		__initialization		CODE           	0039	0000	100
		_TablerxAlign  		STRCODE        	390F	0000	9

shared estimated size: 217

mcc_generated_files/eusart1.c
		_EUSART1_Initialize		CODE           	3BB4	0000	16
		_my_uart1_send_poll		CODE           	3399	0000	49
		_EUSART1_Receive_ISR		CODE           	3F41	0000	38
		_my_uart1_received_ready		CODE           	3B1A	0000	10
		_EUSART1_Transmit_ISR		CODE           	0003	0000	2

mcc_generated_files/eusart1.c estimated size: 115

mcc_generated_files/mcc.c
		_WDT_Initialize		CODE           	3ADF	0000	5
		_OSCILLATOR_Initialize		CODE           	3AE7	0000	6
		_SYSTEM_Initialize		CODE           	3C48	0000	19

mcc_generated_files/mcc.c estimated size: 30

src/driver/led.c
		_led_port_init 		CODE           	3D6C	0000	26

src/driver/led.c estimated size: 26

src/api/ui.c
		_ui_disp_menu  		CODE           	1F07	0000	250
		_ui_disp_flow  		CODE           	22BE	0000	154
		_ui_uint32_2_str		CODE           	2747	0000	186
		_ui_disp_set_line		CODE           	28A1	0000	72
		_ui_disp_set_transferMoneyLimit		CODE           	2800	0000	21
		_ui_disp_set_balanceOff		CODE           	345C	0000	50
		_ui_disp_totale_v		CODE           	2E20	0000	119
		_ui_disp_set_calib		CODE           	2117	0000	131
		_ui_disp_modbus_id		CODE           	3C14	0000	18
		_ui_disp_set_price		CODE           	2C18	0000	96
		_ui_head_hide  		CODE           	3091	0000	43
		_ui_disp_set_imd_flow_uint		CODE           	3000	0000	24
		_ui_disp_small_flow_how_care		CODE           	3C25	0000	18
		_ui_mem_cpy    		CODE           	3F8C	0000	39
		_ui_start_display		CODE           	37BD	0000	68
		_ui_disp_str_num		CODE           	2531	0000	173
		_ui_disp_set_device_id		CODE           	3CB8	0000	21
		_ui_disp_balance_and_volume		CODE           	147D	0000	436
		_ui_disp_transfer_money		CODE           	2199	0000	146
		_ui_disp_str_num_ex		CODE           	268F	0000	185
		_ui_disp_set_balanceWarning		CODE           	348D	0000	50
		_ui_disp_flow_error		CODE           	3B41	0000	12
		_ui_disp_clear_totale		CODE           	3C6C	0000	19
		_ui_disp_clear_balance		CODE           	3C91	0000	20

src/api/ui.c estimated size: 2351

mcc_generated_files/tmr1.c
		_TMR1_Initialize		CODE           	3E43	0000	30
		_TMR1_SetInterruptHandler		CODE           	3AFD	0000	7
		_TMR1_StartTimer		CODE           	3ADC	0000	4
		_TMR1_ISR      		CODE           	3C36	0000	19

mcc_generated_files/tmr1.c estimated size: 60

src/app/rfid_demo.c
		_create_card_key_b		CODE           	3017	0000	41
		_rfid_comm_process		CODE           	1D48	0000	218
		_rfid_comm_process_read_dec		CODE           	367B	0000	64
		_rfid_comm_process_read_inc		CODE           	36BA	0000	64
		_rfid_comm_process_recharge		CODE           	0B78	0000	556
		_rfid_comm_process_read_header		CODE           	0DA3	0000	606

src/app/rfid_demo.c estimated size: 1549

C:\Program Files (x86)\Microchip\xc8\v1.42\sources\common\lwmod.c
		___lwmod       		CODE           	313E	0000	46

C:\Program Files (x86)\Microchip\xc8\v1.42\sources\common\lwmod.c estimated size: 46

C:\Program Files (x86)\Microchip\xc8\v1.42\sources\common\awmod.c
		___awmod       		CODE           	2814	0000	71

C:\Program Files (x86)\Microchip\xc8\v1.42\sources\common\awmod.c estimated size: 71

src/api/modbus.c
		_modbus_response_command		CODE           	25DD	0000	179
		_modbus_response_write_clib_data		CODE           	2490	0000	162
		_modbus_response_process		CODE           	2B64	0000	91
		_modbus_response_read_clib_data		CODE           	1ACD	0000	209
		_modbus_response_illgeal_function		CODE           	363C	0000	64
		_getRegisterVal		CODE           	0950	0000	553
		_modbus_response_write_single_register		CODE           	193B	0000	195

src/api/modbus.c estimated size: 1453

mcc_generated_files/memory.c
		_DATAEE_WriteByte		CODE           	3E26	0000	30
		_DATAEE_ReadByte		CODE           	3B4C	0000	13

mcc_generated_files/memory.c estimated size: 43

C:\Program Files (x86)\Microchip\xc8\v1.42\sources\common\llmod.c
		___llmod       		CODE           	377A	0000	68

C:\Program Files (x86)\Microchip\xc8\v1.42\sources\common\llmod.c estimated size: 68

C:\Program Files (x86)\Microchip\xc8\v1.42\sources\common\almod.c
		___almod       		CODE           	2D42	0000	111

C:\Program Files (x86)\Microchip\xc8\v1.42\sources\common\almod.c estimated size: 111

C:\Program Files (x86)\Microchip\xc8\v1.42\sources\common\Umul16.c
		___wmul        		CODE           	3E7D	0000	31

C:\Program Files (x86)\Microchip\xc8\v1.42\sources\common\Umul16.c estimated size: 31

main.c
		_main          		CODE           	1000	0000	203
		_event_door_monitor		CODE           	3AF1	0000	7
		_event_power_monitor		CODE           	3BA5	0000	16
		_m_system_init 		CODE           	3CCC	0000	22

main.c estimated size: 248

src/nfc/hal/mfrc522_hal.c
		_mfrc522_hal_get_antenna_gain		CODE           	3BC3	0000	16
		_mfrc522_hal_set_antenna_gain		CODE           	3DB9	0000	28
		_mfrc522_hal_antenna_on		CODE           	3D54	0000	25
		_mfrc522_hal_calculate_crc		CODE           	2DB0	0000	113
		_mfrc522_hal_reset_sf		CODE           	3B11	0000	10
		_mfrc522_hal_init		CODE           	2F0D	0000	122

src/nfc/hal/mfrc522_hal.c estimated size: 314

